
objs/7-mini-step-trace-only.elf:     file format elf32-littlearm


Disassembly of section .text:

00008000 <__code_start__>:
    8000:	e3a00013 	mov	r0, #19, 0
    8004:	e3800080 	orr	r0, r0, #128, 0	; 0x80
    8008:	e129f000 	msr	CPSR_fc, r0
    800c:	e3a01000 	mov	r1, #0, 0
    8010:	ee071f95 	mcr	15, 0, r1, cr7, cr5, {4}
    8014:	e3a0d302 	mov	sp, #134217728	; 0x8000000
    8018:	e3a0b000 	mov	fp, #0, 0
    801c:	eb000a05 	bl	a838 <_cstart>
    8020:	eb000a7d 	bl	aa1c <rpi_reboot>

00008024 <PUT32>:
    8024:	e5801000 	str	r1, [r0]
    8028:	e12fff1e 	bx	lr

0000802c <GET32>:
    802c:	e5900000 	ldr	r0, [r0]
    8030:	e12fff1e 	bx	lr

00008034 <BRANCHTO>:
    8034:	e12fff10 	bx	r0

00008038 <nop_1>:
    8038:	e320f000 	nop	{0}
    803c:	e3a00000 	mov	r0, #0, 0
    8040:	ef000001 	svc	0x00000001

00008044 <nop_10>:
    8044:	e320f000 	nop	{0}
    8048:	e320f000 	nop	{0}
    804c:	e320f000 	nop	{0}
    8050:	e320f000 	nop	{0}
    8054:	e320f000 	nop	{0}
    8058:	e320f000 	nop	{0}
    805c:	e320f000 	nop	{0}
    8060:	e320f000 	nop	{0}
    8064:	e320f000 	nop	{0}
    8068:	e320f000 	nop	{0}
    806c:	e12fff1e 	bx	lr
    8070:	e3a0d409 	mov	sp, #150994944	; 0x9000000
    8074:	e24f0004 	sub	r0, pc, #4, 0
    8078:	e28f1000 	add	r1, pc, #0, 0
    807c:	ea0009be 	b	a77c <asm_not_reached_helper>
    8080:	66617473 	.word	0x66617473
    8084:	74732d66 	.word	0x74732d66
    8088:	2e747261 	.word	0x2e747261
    808c:	35383a53 	.word	0x35383a53
    8090:	4f4e3c3a 	.word	0x4f4e3c3a
    8094:	45522054 	.word	0x45522054
    8098:	45484341 	.word	0x45484341
    809c:	3e44      	.short	0x3e44
	...

000080a0 <mov_ident>:
    80a0:	e3a00000 	mov	r0, #0, 0
    80a4:	e3a01001 	mov	r1, #1, 0
    80a8:	e3a02002 	mov	r2, #2, 0
    80ac:	e3a03003 	mov	r3, #3, 0
    80b0:	e3a04004 	mov	r4, #4, 0
    80b4:	e3a05005 	mov	r5, #5, 0
    80b8:	e3a06006 	mov	r6, #6, 0
    80bc:	e3a07007 	mov	r7, #7, 0
    80c0:	e3a08008 	mov	r8, #8, 0
    80c4:	e3a09009 	mov	r9, #9, 0
    80c8:	e3a0a00a 	mov	sl, #10, 0
    80cc:	e3a0b00b 	mov	fp, #11, 0
    80d0:	e3a0c00c 	mov	ip, #12, 0
    80d4:	e12fff1e 	bx	lr
    80d8:	e3a0d409 	mov	sp, #150994944	; 0x9000000
    80dc:	e24f0004 	sub	r0, pc, #4, 0
    80e0:	e28f1000 	add	r1, pc, #0, 0
    80e4:	ea0009a4 	b	a77c <asm_not_reached_helper>
    80e8:	66617473 	.word	0x66617473
    80ec:	74732d66 	.word	0x74732d66
    80f0:	2e747261 	.word	0x2e747261
    80f4:	30313a53 	.word	0x30313a53
    80f8:	4e3c3a33 	.word	0x4e3c3a33
    80fc:	5220544f 	.word	0x5220544f
    8100:	48434145 	.word	0x48434145
    8104:	003e4445 	.word	0x003e4445

00008108 <small1>:
    8108:	e3a01001 	mov	r1, #1, 0
    810c:	e3a00000 	mov	r0, #0, 0
    8110:	ef000001 	svc	0x00000001

00008114 <small2>:
    8114:	e3a01002 	mov	r1, #2, 0
    8118:	e3a00000 	mov	r0, #0, 0
    811c:	ef000001 	svc	0x00000001

00008120 <sys_equiv_exit>:
    8120:	e3a00000 	mov	r0, #0, 0
    8124:	ef000001 	svc	0x00000001

00008128 <sys_equiv_putc>:
    8128:	e52de004 	push	{lr}		; (str lr, [sp, #-4]!)
    812c:	e1a01000 	mov	r1, r0
    8130:	e3a00001 	mov	r0, #1, 0
    8134:	ef000001 	svc	0x00000001
    8138:	e49de004 	pop	{lr}		; (ldr lr, [sp], #4)
    813c:	e12fff1e 	bx	lr

00008140 <step_handler_trivial>:
    8140:	e92d4010 	push	{r4, lr}
    8144:	e5912004 	ldr	r2, [r1, #4]
    8148:	e59f3018 	ldr	r3, [pc, #24]	; 8168 <step_handler_trivial+0x28>
    814c:	e5931000 	ldr	r1, [r3]
    8150:	e2810001 	add	r0, r1, #1, 0
    8154:	e5830000 	str	r0, [r3]
    8158:	e592203c 	ldr	r2, [r2, #60]	; 0x3c
    815c:	e59f0008 	ldr	r0, [pc, #8]	; 816c <step_handler_trivial+0x2c>
    8160:	eb00087c 	bl	a358 <printk>
    8164:	e8bd8010 	pop	{r4, pc}
    8168:	0000c0d8 	.word	0x0000c0d8
    816c:	0000b050 	.word	0x0000b050

00008170 <notmain>:
    8170:	e92d4010 	push	{r4, lr}
    8174:	e3a01301 	mov	r1, #67108864	; 0x4000000
    8178:	e3a00601 	mov	r0, #1048576	; 0x100000
    817c:	eb000ac2 	bl	ac8c <kmalloc_init_set_start>
    8180:	e59f0060 	ldr	r0, [pc, #96]	; 81e8 <notmain+0x78>
    8184:	eb000873 	bl	a358 <printk>
    8188:	e59f005c 	ldr	r0, [pc, #92]	; 81ec <notmain+0x7c>
    818c:	eb000871 	bl	a358 <printk>
    8190:	e3a01000 	mov	r1, #0, 0
    8194:	e59f0054 	ldr	r0, [pc, #84]	; 81f0 <notmain+0x80>
    8198:	eb0001db 	bl	890c <mini_step_init>
    819c:	e59f0050 	ldr	r0, [pc, #80]	; 81f4 <notmain+0x84>
    81a0:	eb00086c 	bl	a358 <printk>
    81a4:	e59f504c 	ldr	r5, [pc, #76]	; 81f8 <notmain+0x88>
    81a8:	e3a04000 	mov	r4, #0, 0
    81ac:	e5854000 	str	r4, [r5]
    81b0:	e1a01004 	mov	r1, r4
    81b4:	e59f0040 	ldr	r0, [pc, #64]	; 81fc <notmain+0x8c>
    81b8:	eb00021c 	bl	8a30 <mini_step_run>
    81bc:	e59f003c 	ldr	r0, [pc, #60]	; 8200 <notmain+0x90>
    81c0:	eb000864 	bl	a358 <printk>
    81c4:	e59f0038 	ldr	r0, [pc, #56]	; 8204 <notmain+0x94>
    81c8:	eb000862 	bl	a358 <printk>
    81cc:	e5854000 	str	r4, [r5]
    81d0:	e1a01004 	mov	r1, r4
    81d4:	e59f002c 	ldr	r0, [pc, #44]	; 8208 <notmain+0x98>
    81d8:	eb000214 	bl	8a30 <mini_step_run>
    81dc:	e59f0028 	ldr	r0, [pc, #40]	; 820c <notmain+0x9c>
    81e0:	eb00085c 	bl	a358 <printk>
    81e4:	eb00098b 	bl	a818 <clean_reboot>
    81e8:	0000b068 	.word	0x0000b068
    81ec:	0000b098 	.word	0x0000b098
    81f0:	00008140 	.word	0x00008140
    81f4:	0000b0b8 	.word	0x0000b0b8
    81f8:	0000c0d8 	.word	0x0000c0d8
    81fc:	00008044 	.word	0x00008044
    8200:	0000b0d0 	.word	0x0000b0d0
    8204:	0000b0e0 	.word	0x0000b0e0
    8208:	000080a0 	.word	0x000080a0
    820c:	0000b0fc 	.word	0x0000b0fc

00008210 <mini_watch_load_fault>:
    8210:	ee153f10 	mrc	15, 0, r3, cr5, cr0, {0}
    8214:	e3130b02 	tst	r3, #2048	; 0x800
    8218:	03a00001 	moveq	r0, #1, 0
    821c:	13a00000 	movne	r0, #0, 0
    8220:	e12fff1e 	bx	lr

00008224 <watchpt_fault>:
    8224:	e92d4070 	push	{r4, r5, r6, lr}
    8228:	e24dd028 	sub	sp, sp, #40, 0	; 0x28
    822c:	e1a04000 	mov	r4, r0
    8230:	ee153f30 	mrc	15, 0, r3, cr5, cr0, {1}
    8234:	e203300f 	and	r3, r3, #15, 0
    8238:	e3530002 	cmp	r3, #2, 0
    823c:	0a000009 	beq	8268 <watchpt_fault+0x44>
    8240:	ee153f10 	mrc	15, 0, r3, cr5, cr0, {0}
    8244:	e203300f 	and	r3, r3, #15, 0
    8248:	e3530002 	cmp	r3, #2, 0
    824c:	0a000010 	beq	8294 <watchpt_fault+0x70>
    8250:	e3a03023 	mov	r3, #35, 0	; 0x23
    8254:	e59f2150 	ldr	r2, [pc, #336]	; 83ac <watchpt_fault+0x188>
    8258:	e59f1150 	ldr	r1, [pc, #336]	; 83b0 <watchpt_fault+0x18c>
    825c:	e59f0150 	ldr	r0, [pc, #336]	; 83b4 <watchpt_fault+0x190>
    8260:	eb00083c 	bl	a358 <printk>
    8264:	eb00096b 	bl	a818 <clean_reboot>
    8268:	ee103e11 	mrc	14, 0, r3, cr0, cr1, {0}
    826c:	e1a03123 	lsr	r3, r3, #2
    8270:	e203300f 	and	r3, r3, #15, 0
    8274:	e3530001 	cmp	r3, #1, 0
    8278:	1afffff0 	bne	8240 <watchpt_fault+0x1c>
    827c:	e3a03021 	mov	r3, #33, 0	; 0x21
    8280:	e59f2124 	ldr	r2, [pc, #292]	; 83ac <watchpt_fault+0x188>
    8284:	e59f1124 	ldr	r1, [pc, #292]	; 83b0 <watchpt_fault+0x18c>
    8288:	e59f0128 	ldr	r0, [pc, #296]	; 83b8 <watchpt_fault+0x194>
    828c:	eb000831 	bl	a358 <printk>
    8290:	eb000960 	bl	a818 <clean_reboot>
    8294:	ee103e11 	mrc	14, 0, r3, cr0, cr1, {0}
    8298:	e1a03123 	lsr	r3, r3, #2
    829c:	e203300f 	and	r3, r3, #15, 0
    82a0:	e3530002 	cmp	r3, #2, 0
    82a4:	1affffe9 	bne	8250 <watchpt_fault+0x2c>
    82a8:	e59f310c 	ldr	r3, [pc, #268]	; 83bc <watchpt_fault+0x198>
    82ac:	e5933000 	ldr	r3, [r3]
    82b0:	e3530000 	cmp	r3, #0, 0
    82b4:	0a000008 	beq	82dc <watchpt_fault+0xb8>
    82b8:	e3a02000 	mov	r2, #0, 0
    82bc:	e58d2008 	str	r2, [sp, #8]
    82c0:	e58d200c 	str	r2, [sp, #12]
    82c4:	e58d2010 	str	r2, [sp, #16]
    82c8:	e58d2014 	str	r2, [sp, #20]
    82cc:	ee103ef0 	mrc	14, 0, r3, cr0, cr0, {7}
    82d0:	e1a032a3 	lsr	r3, r3, #5
    82d4:	e203300f 	and	r3, r3, #15, 0
    82d8:	ea000007 	b	82fc <watchpt_fault+0xd8>
    82dc:	e3a03025 	mov	r3, #37, 0	; 0x25
    82e0:	e59f20c4 	ldr	r2, [pc, #196]	; 83ac <watchpt_fault+0x188>
    82e4:	e59f10c4 	ldr	r1, [pc, #196]	; 83b0 <watchpt_fault+0x18c>
    82e8:	e59f00d0 	ldr	r0, [pc, #208]	; 83c0 <watchpt_fault+0x19c>
    82ec:	eb000819 	bl	a358 <printk>
    82f0:	eb000948 	bl	a818 <clean_reboot>
    82f4:	e2822001 	add	r2, r2, #1, 0
    82f8:	e1a030a3 	lsr	r3, r3, #1
    82fc:	e3130001 	tst	r3, #1, 0
    8300:	0afffffb 	beq	82f4 <watchpt_fault+0xd0>
    8304:	ee105ed0 	mrc	14, 0, r5, cr0, cr0, {6}
    8308:	e0825005 	add	r5, r2, r5
    830c:	ee106e16 	mrc	14, 0, r6, cr0, cr6, {0}
    8310:	e2466008 	sub	r6, r6, #8, 0
    8314:	ebffffbd 	bl	8210 <mini_watch_load_fault>
    8318:	e58d6018 	str	r6, [sp, #24]
    831c:	e58d501c 	str	r5, [sp, #28]
    8320:	e58d0020 	str	r0, [sp, #32]
    8324:	e58d4024 	str	r4, [sp, #36]	; 0x24
    8328:	e28dc008 	add	ip, sp, #8, 0
    832c:	e28d3028 	add	r3, sp, #40, 0	; 0x28
    8330:	e913000f 	ldmdb	r3, {r0, r1, r2, r3}
    8334:	e88c000f 	stm	ip, {r0, r1, r2, r3}
    8338:	e59f307c 	ldr	r3, [pc, #124]	; 83bc <watchpt_fault+0x198>
    833c:	e5932000 	ldr	r2, [r3]
    8340:	e1a0100c 	mov	r1, ip
    8344:	e5930004 	ldr	r0, [r3, #4]
    8348:	e12fff32 	blx	r2
    834c:	e59d0014 	ldr	r0, [sp, #20]
    8350:	e5903040 	ldr	r3, [r0, #64]	; 0x40
    8354:	e203301f 	and	r3, r3, #31, 0
    8358:	e3530012 	cmp	r3, #18, 0
    835c:	13530010 	cmpne	r3, #16, 0
    8360:	0a000005 	beq	837c <watchpt_fault+0x158>
    8364:	e3530017 	cmp	r3, #23, 0
    8368:	13530013 	cmpne	r3, #19, 0
    836c:	0a000002 	beq	837c <watchpt_fault+0x158>
    8370:	e353001f 	cmp	r3, #31, 0
    8374:	1353001b 	cmpne	r3, #27, 0
    8378:	1a000002 	bne	8388 <watchpt_fault+0x164>
    837c:	e3530010 	cmp	r3, #16, 0
    8380:	0a000008 	beq	83a8 <watchpt_fault+0x184>
    8384:	eb0003af 	bl	9248 <switchto_priv_asm>
    8388:	e58d3004 	str	r3, [sp, #4]
    838c:	e58d3000 	str	r3, [sp]
    8390:	e3a03013 	mov	r3, #19, 0
    8394:	e59f2028 	ldr	r2, [pc, #40]	; 83c4 <watchpt_fault+0x1a0>
    8398:	e59f1028 	ldr	r1, [pc, #40]	; 83c8 <watchpt_fault+0x1a4>
    839c:	e59f0028 	ldr	r0, [pc, #40]	; 83cc <watchpt_fault+0x1a8>
    83a0:	eb0007ec 	bl	a358 <printk>
    83a4:	eb00091b 	bl	a818 <clean_reboot>
    83a8:	eb000395 	bl	9204 <switchto_user_asm>
    83ac:	0000b280 	.word	0x0000b280
    83b0:	0000b110 	.word	0x0000b110
    83b4:	0000b150 	.word	0x0000b150
    83b8:	0000b120 	.word	0x0000b120
    83bc:	0000c0dc 	.word	0x0000c0dc
    83c0:	0000b184 	.word	0x0000b184
    83c4:	0000b290 	.word	0x0000b290
    83c8:	0000b1c0 	.word	0x0000b1c0
    83cc:	0000b1cc 	.word	0x0000b1cc

000083d0 <mini_watch_init>:
    83d0:	e92d4030 	push	{r4, r5, lr}
    83d4:	e24dd00c 	sub	sp, sp, #12, 0
    83d8:	e1a05000 	mov	r5, r0
    83dc:	e1a04001 	mov	r4, r1
    83e0:	e3a00000 	mov	r0, #0, 0
    83e4:	eb000308 	bl	900c <full_except_install>
    83e8:	e59f00bc 	ldr	r0, [pc, #188]	; 84ac <mini_watch_init+0xdc>
    83ec:	eb0002fa 	bl	8fdc <full_except_set_data_abort>
    83f0:	ee103e11 	mrc	14, 0, r3, cr0, cr1, {0}
    83f4:	e3130902 	tst	r3, #32768	; 0x8000
    83f8:	1a000008 	bne	8420 <mini_watch_init+0x50>
    83fc:	ee103e11 	mrc	14, 0, r3, cr0, cr1, {0}
    8400:	e3c33903 	bic	r3, r3, #49152	; 0xc000
    8404:	e3833902 	orr	r3, r3, #32768	; 0x8000
    8408:	ee003e11 	mcr	14, 0, r3, cr0, cr1, {0}
    840c:	e3a03000 	mov	r3, #0, 0
    8410:	ee073f95 	mcr	15, 0, r3, cr7, cr5, {4}
    8414:	ee103e11 	mrc	14, 0, r3, cr0, cr1, {0}
    8418:	e3130902 	tst	r3, #32768	; 0x8000
    841c:	0a00000a 	beq	844c <mini_watch_init+0x7c>
    8420:	ee103eb0 	mrc	14, 0, r3, cr0, cr0, {5}
    8424:	e3130001 	tst	r3, #1, 0
    8428:	1a00000f 	bne	846c <mini_watch_init+0x9c>
    842c:	ee103eb0 	mrc	14, 0, r3, cr0, cr0, {5}
    8430:	e3130001 	tst	r3, #1, 0
    8434:	1a000014 	bne	848c <mini_watch_init+0xbc>
    8438:	e59f3070 	ldr	r3, [pc, #112]	; 84b0 <mini_watch_init+0xe0>
    843c:	e5835000 	str	r5, [r3]
    8440:	e5834004 	str	r4, [r3, #4]
    8444:	e28dd00c 	add	sp, sp, #12, 0
    8448:	e8bd8030 	pop	{r4, r5, pc}
    844c:	e59f3060 	ldr	r3, [pc, #96]	; 84b4 <mini_watch_init+0xe4>
    8450:	e58d3000 	str	r3, [sp]
    8454:	e3a030a9 	mov	r3, #169, 0	; 0xa9
    8458:	e59f2058 	ldr	r2, [pc, #88]	; 84b8 <mini_watch_init+0xe8>
    845c:	e59f1058 	ldr	r1, [pc, #88]	; 84bc <mini_watch_init+0xec>
    8460:	e59f0058 	ldr	r0, [pc, #88]	; 84c0 <mini_watch_init+0xf0>
    8464:	eb0007bb 	bl	a358 <printk>
    8468:	eb0008ea 	bl	a818 <clean_reboot>
    846c:	e59f3050 	ldr	r3, [pc, #80]	; 84c4 <mini_watch_init+0xf4>
    8470:	e58d3000 	str	r3, [sp]
    8474:	e3a0304a 	mov	r3, #74, 0	; 0x4a
    8478:	e59f2048 	ldr	r2, [pc, #72]	; 84c8 <mini_watch_init+0xf8>
    847c:	e59f1048 	ldr	r1, [pc, #72]	; 84cc <mini_watch_init+0xfc>
    8480:	e59f0038 	ldr	r0, [pc, #56]	; 84c0 <mini_watch_init+0xf0>
    8484:	eb0007b3 	bl	a358 <printk>
    8488:	eb0008e2 	bl	a818 <clean_reboot>
    848c:	e59f3030 	ldr	r3, [pc, #48]	; 84c4 <mini_watch_init+0xf4>
    8490:	e58d3000 	str	r3, [sp]
    8494:	e3a0304b 	mov	r3, #75, 0	; 0x4b
    8498:	e59f2028 	ldr	r2, [pc, #40]	; 84c8 <mini_watch_init+0xf8>
    849c:	e59f1028 	ldr	r1, [pc, #40]	; 84cc <mini_watch_init+0xfc>
    84a0:	e59f0018 	ldr	r0, [pc, #24]	; 84c0 <mini_watch_init+0xf0>
    84a4:	eb0007ab 	bl	a358 <printk>
    84a8:	eb0008da 	bl	a818 <clean_reboot>
    84ac:	00008224 	.word	0x00008224
    84b0:	0000c0dc 	.word	0x0000c0dc
    84b4:	0000b23c 	.word	0x0000b23c
    84b8:	0000b29c 	.word	0x0000b29c
    84bc:	0000b1f8 	.word	0x0000b1f8
    84c0:	0000b20c 	.word	0x0000b20c
    84c4:	0000b250 	.word	0x0000b250
    84c8:	0000b2a8 	.word	0x0000b2a8
    84cc:	0000b110 	.word	0x0000b110

000084d0 <mini_watch_addr>:
    84d0:	ee103ef0 	mrc	14, 0, r3, cr0, cr0, {7}
    84d4:	e3c33601 	bic	r3, r3, #1048576	; 0x100000
    84d8:	e3c33e1e 	bic	r3, r3, #480	; 0x1e0
    84dc:	e3833001 	orr	r3, r3, #1, 0
    84e0:	e2002003 	and	r2, r0, #3, 0
    84e4:	e2822005 	add	r2, r2, #5, 0
    84e8:	e3a01001 	mov	r1, #1, 0
    84ec:	e1833211 	orr	r3, r3, r1, lsl r2
    84f0:	e3c33903 	bic	r3, r3, #49152	; 0xc000
    84f4:	e383301e 	orr	r3, r3, #30, 0
    84f8:	ee003ef0 	mcr	14, 0, r3, cr0, cr0, {7}
    84fc:	e3a03000 	mov	r3, #0, 0
    8500:	ee073f95 	mcr	15, 0, r3, cr7, cr5, {4}
    8504:	ee000ed0 	mcr	14, 0, r0, cr0, cr0, {6}
    8508:	ee073f95 	mcr	15, 0, r3, cr7, cr5, {4}
    850c:	ee103ef0 	mrc	14, 0, r3, cr0, cr0, {7}
    8510:	e3130001 	tst	r3, #1, 0
    8514:	112fff1e 	bxne	lr
    8518:	e52de004 	push	{lr}		; (str lr, [sp, #-4]!)
    851c:	e24dd00c 	sub	sp, sp, #12, 0
    8520:	e59f3018 	ldr	r3, [pc, #24]	; 8540 <mini_watch_addr+0x70>
    8524:	e58d3000 	str	r3, [sp]
    8528:	e3a03066 	mov	r3, #102, 0	; 0x66
    852c:	e59f2010 	ldr	r2, [pc, #16]	; 8544 <mini_watch_addr+0x74>
    8530:	e59f1010 	ldr	r1, [pc, #16]	; 8548 <mini_watch_addr+0x78>
    8534:	e59f0010 	ldr	r0, [pc, #16]	; 854c <mini_watch_addr+0x7c>
    8538:	eb000786 	bl	a358 <printk>
    853c:	eb0008b5 	bl	a818 <clean_reboot>
    8540:	0000b268 	.word	0x0000b268
    8544:	0000b2b8 	.word	0x0000b2b8
    8548:	0000b110 	.word	0x0000b110
    854c:	0000b20c 	.word	0x0000b20c

00008550 <mini_watch_disable>:
    8550:	ee103ef0 	mrc	14, 0, r3, cr0, cr0, {7}
    8554:	e3c33001 	bic	r3, r3, #1, 0
    8558:	ee003ef0 	mcr	14, 0, r3, cr0, cr0, {7}
    855c:	e3a03000 	mov	r3, #0, 0
    8560:	ee073f95 	mcr	15, 0, r3, cr7, cr5, {4}
    8564:	e12fff1e 	bx	lr

00008568 <mini_watch_enabled>:
    8568:	ee100ef0 	mrc	14, 0, r0, cr0, cr0, {7}
    856c:	e2000001 	and	r0, r0, #1, 0
    8570:	e12fff1e 	bx	lr

00008574 <mini_watch_is_fault>:
    8574:	ee153f10 	mrc	15, 0, r3, cr5, cr0, {0}
    8578:	e203300f 	and	r3, r3, #15, 0
    857c:	e3530002 	cmp	r3, #2, 0
    8580:	0a000001 	beq	858c <mini_watch_is_fault+0x18>
    8584:	e3a00000 	mov	r0, #0, 0
    8588:	e12fff1e 	bx	lr
    858c:	ee103e11 	mrc	14, 0, r3, cr0, cr1, {0}
    8590:	e1a03123 	lsr	r3, r3, #2
    8594:	e203300f 	and	r3, r3, #15, 0
    8598:	e3530002 	cmp	r3, #2, 0
    859c:	0a000001 	beq	85a8 <mini_watch_is_fault+0x34>
    85a0:	e3a00000 	mov	r0, #0, 0
    85a4:	e12fff1e 	bx	lr
    85a8:	e3a00001 	mov	r0, #1, 0
    85ac:	e12fff1e 	bx	lr

000085b0 <ss_on_exit>:
    85b0:	e92d4010 	push	{r4, lr}
    85b4:	e3a03054 	mov	r3, #84, 0	; 0x54
    85b8:	e59f200c 	ldr	r2, [pc, #12]	; 85cc <ss_on_exit+0x1c>
    85bc:	e59f100c 	ldr	r1, [pc, #12]	; 85d0 <ss_on_exit+0x20>
    85c0:	e59f000c 	ldr	r0, [pc, #12]	; 85d4 <ss_on_exit+0x24>
    85c4:	eb000763 	bl	a358 <printk>
    85c8:	eb000892 	bl	a818 <clean_reboot>
    85cc:	0000b3d0 	.word	0x0000b3d0
    85d0:	0000b2c8 	.word	0x0000b2c8
    85d4:	0000b2d4 	.word	0x0000b2d4

000085d8 <mode_get>:
    85d8:	e200001f 	and	r0, r0, #31, 0
    85dc:	e3500012 	cmp	r0, #18, 0
    85e0:	13500010 	cmpne	r0, #16, 0
    85e4:	012fff1e 	bxeq	lr
    85e8:	e3500017 	cmp	r0, #23, 0
    85ec:	13500013 	cmpne	r0, #19, 0
    85f0:	012fff1e 	bxeq	lr
    85f4:	e350001f 	cmp	r0, #31, 0
    85f8:	1350001b 	cmpne	r0, #27, 0
    85fc:	012fff1e 	bxeq	lr
    8600:	e52de004 	push	{lr}		; (str lr, [sp, #-4]!)
    8604:	e24dd00c 	sub	sp, sp, #12, 0
    8608:	e58d0004 	str	r0, [sp, #4]
    860c:	e58d0000 	str	r0, [sp]
    8610:	e3a03013 	mov	r3, #19, 0
    8614:	e59f200c 	ldr	r2, [pc, #12]	; 8628 <mode_get+0x50>
    8618:	e59f100c 	ldr	r1, [pc, #12]	; 862c <mode_get+0x54>
    861c:	e59f000c 	ldr	r0, [pc, #12]	; 8630 <mode_get+0x58>
    8620:	eb00074c 	bl	a358 <printk>
    8624:	eb00087b 	bl	a818 <clean_reboot>
    8628:	0000b3dc 	.word	0x0000b3dc
    862c:	0000b1c0 	.word	0x0000b1c0
    8630:	0000b1cc 	.word	0x0000b1cc

00008634 <switchto>:
    8634:	e92d4010 	push	{r4, lr}
    8638:	e1a04000 	mov	r4, r0
    863c:	e5900040 	ldr	r0, [r0, #64]	; 0x40
    8640:	ebffffe4 	bl	85d8 <mode_get>
    8644:	e3500010 	cmp	r0, #16, 0
    8648:	0a000001 	beq	8654 <switchto+0x20>
    864c:	e1a00004 	mov	r0, r4
    8650:	eb0002fc 	bl	9248 <switchto_priv_asm>
    8654:	e1a00004 	mov	r0, r4
    8658:	eb0002e9 	bl	9204 <switchto_user_asm>

0000865c <mismatch_pc_set>:
    865c:	e52de004 	push	{lr}		; (str lr, [sp, #-4]!)
    8660:	e24dd00c 	sub	sp, sp, #12, 0
    8664:	e59f20c0 	ldr	r2, [pc, #192]	; 872c <mismatch_pc_set+0xd0>
    8668:	e5922000 	ldr	r2, [r2]
    866c:	e3520000 	cmp	r2, #0, 0
    8670:	0a000015 	beq	86cc <mismatch_pc_set+0x70>
    8674:	e1a03000 	mov	r3, r0
    8678:	ee100e90 	mrc	14, 0, r0, cr0, cr0, {4}
    867c:	ee102eb0 	mrc	14, 0, r2, cr0, cr0, {5}
    8680:	e59f10a8 	ldr	r1, [pc, #168]	; 8730 <mismatch_pc_set+0xd4>
    8684:	e0011002 	and	r1, r1, r2
    8688:	e59f20a4 	ldr	r2, [pc, #164]	; 8734 <mismatch_pc_set+0xd8>
    868c:	e1812002 	orr	r2, r1, r2
    8690:	ee002eb0 	mcr	14, 0, r2, cr0, cr0, {5}
    8694:	e3a02000 	mov	r2, #0, 0
    8698:	ee072f95 	mcr	15, 0, r2, cr7, cr5, {4}
    869c:	ee003e90 	mcr	14, 0, r3, cr0, cr0, {4}
    86a0:	ee072f95 	mcr	15, 0, r2, cr7, cr5, {4}
    86a4:	ee102eb0 	mrc	14, 0, r2, cr0, cr0, {5}
    86a8:	e3120001 	tst	r2, #1, 0
    86ac:	0a00000e 	beq	86ec <mismatch_pc_set+0x90>
    86b0:	e3a02000 	mov	r2, #0, 0
    86b4:	ee072f95 	mcr	15, 0, r2, cr7, cr5, {4}
    86b8:	ee102e90 	mrc	14, 0, r2, cr0, cr0, {4}
    86bc:	e1530002 	cmp	r3, r2
    86c0:	1a000011 	bne	870c <mismatch_pc_set+0xb0>
    86c4:	e28dd00c 	add	sp, sp, #12, 0
    86c8:	e49df004 	pop	{pc}		; (ldr pc, [sp], #4)
    86cc:	e59f3064 	ldr	r3, [pc, #100]	; 8738 <mismatch_pc_set+0xdc>
    86d0:	e58d3000 	str	r3, [sp]
    86d4:	e3a0301a 	mov	r3, #26, 0
    86d8:	e59f205c 	ldr	r2, [pc, #92]	; 873c <mismatch_pc_set+0xe0>
    86dc:	e59f105c 	ldr	r1, [pc, #92]	; 8740 <mismatch_pc_set+0xe4>
    86e0:	e59f005c 	ldr	r0, [pc, #92]	; 8744 <mismatch_pc_set+0xe8>
    86e4:	eb00071b 	bl	a358 <printk>
    86e8:	eb00084a 	bl	a818 <clean_reboot>
    86ec:	e59f3054 	ldr	r3, [pc, #84]	; 8748 <mismatch_pc_set+0xec>
    86f0:	e58d3000 	str	r3, [sp]
    86f4:	e3a03032 	mov	r3, #50, 0	; 0x32
    86f8:	e59f203c 	ldr	r2, [pc, #60]	; 873c <mismatch_pc_set+0xe0>
    86fc:	e59f103c 	ldr	r1, [pc, #60]	; 8740 <mismatch_pc_set+0xe4>
    8700:	e59f003c 	ldr	r0, [pc, #60]	; 8744 <mismatch_pc_set+0xe8>
    8704:	eb000713 	bl	a358 <printk>
    8708:	eb000842 	bl	a818 <clean_reboot>
    870c:	e59f3038 	ldr	r3, [pc, #56]	; 874c <mismatch_pc_set+0xf0>
    8710:	e58d3000 	str	r3, [sp]
    8714:	e3a03036 	mov	r3, #54, 0	; 0x36
    8718:	e59f201c 	ldr	r2, [pc, #28]	; 873c <mismatch_pc_set+0xe0>
    871c:	e59f101c 	ldr	r1, [pc, #28]	; 8740 <mismatch_pc_set+0xe4>
    8720:	e59f001c 	ldr	r0, [pc, #28]	; 8744 <mismatch_pc_set+0xe8>
    8724:	eb00070b 	bl	a358 <printk>
    8728:	eb00083a 	bl	a818 <clean_reboot>
    872c:	0000c0e4 	.word	0x0000c0e4
    8730:	ff8f3e1f 	.word	0xff8f3e1f
    8734:	004001e7 	.word	0x004001e7
    8738:	0000b300 	.word	0x0000b300
    873c:	0000b3e8 	.word	0x0000b3e8
    8740:	0000b2c8 	.word	0x0000b2c8
    8744:	0000b20c 	.word	0x0000b20c
    8748:	0000b314 	.word	0x0000b314
    874c:	0000b32c 	.word	0x0000b32c

00008750 <mismatch_fault>:
    8750:	e92d4070 	push	{r4, r5, r6, lr}
    8754:	e24dd010 	sub	sp, sp, #16, 0
    8758:	e590503c 	ldr	r5, [r0, #60]	; 0x3c
    875c:	e59f3064 	ldr	r3, [pc, #100]	; 87c8 <mismatch_fault+0x78>
    8760:	e1530005 	cmp	r3, r5
    8764:	0a000012 	beq	87b4 <mismatch_fault+0x64>
    8768:	e1a04000 	mov	r4, r0
    876c:	e58d5008 	str	r5, [sp, #8]
    8770:	e58d000c 	str	r0, [sp, #12]
    8774:	e1a0300d 	mov	r3, sp
    8778:	e28d2010 	add	r2, sp, #16, 0
    877c:	e9120003 	ldmdb	r2, {r0, r1}
    8780:	e8830003 	stm	r3, {r0, r1}
    8784:	e59f2040 	ldr	r2, [pc, #64]	; 87cc <mismatch_fault+0x7c>
    8788:	e592604c 	ldr	r6, [r2, #76]	; 0x4c
    878c:	e1a01003 	mov	r1, r3
    8790:	e5920048 	ldr	r0, [r2, #72]	; 0x48
    8794:	e12fff36 	blx	r6
    8798:	e1a00005 	mov	r0, r5
    879c:	ebffffae 	bl	865c <mismatch_pc_set>
    87a0:	eb00061a 	bl	a010 <uart_can_put8>
    87a4:	e3500000 	cmp	r0, #0, 0
    87a8:	0afffffc 	beq	87a0 <mismatch_fault+0x50>
    87ac:	e1a00004 	mov	r0, r4
    87b0:	ebffff9f 	bl	8634 <switchto>
    87b4:	e1a01005 	mov	r1, r5
    87b8:	e59f0010 	ldr	r0, [pc, #16]	; 87d0 <mismatch_fault+0x80>
    87bc:	eb0006e5 	bl	a358 <printk>
    87c0:	e59f000c 	ldr	r0, [pc, #12]	; 87d4 <mismatch_fault+0x84>
    87c4:	ebffff9a 	bl	8634 <switchto>
    87c8:	000085b0 	.word	0x000085b0
    87cc:	0000c0e4 	.word	0x0000c0e4
    87d0:	0000b344 	.word	0x0000b344
    87d4:	0000c0e8 	.word	0x0000c0e8

000087d8 <mismatch_on>:
    87d8:	e52de004 	push	{lr}		; (str lr, [sp, #-4]!)
    87dc:	e24dd00c 	sub	sp, sp, #12, 0
    87e0:	e59f3094 	ldr	r3, [pc, #148]	; 887c <mismatch_on+0xa4>
    87e4:	e5933000 	ldr	r3, [r3]
    87e8:	e3530000 	cmp	r3, #0, 0
    87ec:	1a000012 	bne	883c <mismatch_on+0x64>
    87f0:	e59f3084 	ldr	r3, [pc, #132]	; 887c <mismatch_on+0xa4>
    87f4:	e3a02001 	mov	r2, #1, 0
    87f8:	e5832000 	str	r2, [r3]
    87fc:	ee103e11 	mrc	14, 0, r3, cr0, cr1, {0}
    8800:	e3130902 	tst	r3, #32768	; 0x8000
    8804:	1a000008 	bne	882c <mismatch_on+0x54>
    8808:	ee103e11 	mrc	14, 0, r3, cr0, cr1, {0}
    880c:	e3c33903 	bic	r3, r3, #49152	; 0xc000
    8810:	e3833902 	orr	r3, r3, #32768	; 0x8000
    8814:	ee003e11 	mcr	14, 0, r3, cr0, cr1, {0}
    8818:	e3a03000 	mov	r3, #0, 0
    881c:	ee073f95 	mcr	15, 0, r3, cr7, cr5, {4}
    8820:	ee103e11 	mrc	14, 0, r3, cr0, cr1, {0}
    8824:	e3130902 	tst	r3, #32768	; 0x8000
    8828:	0a00000b 	beq	885c <mismatch_on+0x84>
    882c:	e3a00000 	mov	r0, #0, 0
    8830:	ebffff89 	bl	865c <mismatch_pc_set>
    8834:	e28dd00c 	add	sp, sp, #12, 0
    8838:	e49df004 	pop	{pc}		; (ldr pc, [sp], #4)
    883c:	e59f303c 	ldr	r3, [pc, #60]	; 8880 <mismatch_on+0xa8>
    8840:	e58d3000 	str	r3, [sp]
    8844:	e3a0303c 	mov	r3, #60, 0	; 0x3c
    8848:	e59f2034 	ldr	r2, [pc, #52]	; 8884 <mismatch_on+0xac>
    884c:	e59f1034 	ldr	r1, [pc, #52]	; 8888 <mismatch_on+0xb0>
    8850:	e59f0034 	ldr	r0, [pc, #52]	; 888c <mismatch_on+0xb4>
    8854:	eb0006bf 	bl	a358 <printk>
    8858:	eb0007ee 	bl	a818 <clean_reboot>
    885c:	e59f302c 	ldr	r3, [pc, #44]	; 8890 <mismatch_on+0xb8>
    8860:	e58d3000 	str	r3, [sp]
    8864:	e3a030a9 	mov	r3, #169, 0	; 0xa9
    8868:	e59f2024 	ldr	r2, [pc, #36]	; 8894 <mismatch_on+0xbc>
    886c:	e59f1024 	ldr	r1, [pc, #36]	; 8898 <mismatch_on+0xc0>
    8870:	e59f0014 	ldr	r0, [pc, #20]	; 888c <mismatch_on+0xb4>
    8874:	eb0006b7 	bl	a358 <printk>
    8878:	eb0007e6 	bl	a818 <clean_reboot>
    887c:	0000c0e4 	.word	0x0000c0e4
    8880:	0000b36c 	.word	0x0000b36c
    8884:	0000b3f8 	.word	0x0000b3f8
    8888:	0000b2c8 	.word	0x0000b2c8
    888c:	0000b20c 	.word	0x0000b20c
    8890:	0000b23c 	.word	0x0000b23c
    8894:	0000b404 	.word	0x0000b404
    8898:	0000b1f8 	.word	0x0000b1f8

0000889c <mismatch_off>:
    889c:	e59f3054 	ldr	r3, [pc, #84]	; 88f8 <mismatch_off+0x5c>
    88a0:	e5933000 	ldr	r3, [r3]
    88a4:	e3530000 	cmp	r3, #0, 0
    88a8:	0a000008 	beq	88d0 <mismatch_off+0x34>
    88ac:	e3a03000 	mov	r3, #0, 0
    88b0:	e59f2040 	ldr	r2, [pc, #64]	; 88f8 <mismatch_off+0x5c>
    88b4:	e5823000 	str	r3, [r2]
    88b8:	ee102eb0 	mrc	14, 0, r2, cr0, cr0, {5}
    88bc:	e3c22001 	bic	r2, r2, #1, 0
    88c0:	ee002eb0 	mcr	14, 0, r2, cr0, cr0, {5}
    88c4:	ee073f95 	mcr	15, 0, r3, cr7, cr5, {4}
    88c8:	ee073f95 	mcr	15, 0, r3, cr7, cr5, {4}
    88cc:	e12fff1e 	bx	lr
    88d0:	e52de004 	push	{lr}		; (str lr, [sp, #-4]!)
    88d4:	e24dd00c 	sub	sp, sp, #12, 0
    88d8:	e59f301c 	ldr	r3, [pc, #28]	; 88fc <mismatch_off+0x60>
    88dc:	e58d3000 	str	r3, [sp]
    88e0:	e3a03048 	mov	r3, #72, 0	; 0x48
    88e4:	e59f2014 	ldr	r2, [pc, #20]	; 8900 <mismatch_off+0x64>
    88e8:	e59f1014 	ldr	r1, [pc, #20]	; 8904 <mismatch_off+0x68>
    88ec:	e59f0014 	ldr	r0, [pc, #20]	; 8908 <mismatch_off+0x6c>
    88f0:	eb000698 	bl	a358 <printk>
    88f4:	eb0007c7 	bl	a818 <clean_reboot>
    88f8:	0000c0e4 	.word	0x0000c0e4
    88fc:	0000b300 	.word	0x0000b300
    8900:	0000b410 	.word	0x0000b410
    8904:	0000b2c8 	.word	0x0000b2c8
    8908:	0000b20c 	.word	0x0000b20c

0000890c <mini_step_init>:
    890c:	e52de004 	push	{lr}		; (str lr, [sp, #-4]!)
    8910:	e24dd00c 	sub	sp, sp, #12, 0
    8914:	ee103e11 	mrc	14, 0, r3, cr0, cr1, {0}
    8918:	e3130902 	tst	r3, #32768	; 0x8000
    891c:	1a000008 	bne	8944 <mini_step_init+0x38>
    8920:	ee103e11 	mrc	14, 0, r3, cr0, cr1, {0}
    8924:	e3c33903 	bic	r3, r3, #49152	; 0xc000
    8928:	e3833902 	orr	r3, r3, #32768	; 0x8000
    892c:	ee003e11 	mcr	14, 0, r3, cr0, cr1, {0}
    8930:	e3a03000 	mov	r3, #0, 0
    8934:	ee073f95 	mcr	15, 0, r3, cr7, cr5, {4}
    8938:	ee103e11 	mrc	14, 0, r3, cr0, cr1, {0}
    893c:	e3130902 	tst	r3, #32768	; 0x8000
    8940:	0a000010 	beq	8988 <mini_step_init+0x7c>
    8944:	e3500000 	cmp	r0, #0, 0
    8948:	0a000016 	beq	89a8 <mini_step_init+0x9c>
    894c:	e59f30b4 	ldr	r3, [pc, #180]	; 8a08 <mini_step_init+0xfc>
    8950:	e5831048 	str	r1, [r3, #72]	; 0x48
    8954:	e583004c 	str	r0, [r3, #76]	; 0x4c
    8958:	e3a00000 	mov	r0, #0, 0
    895c:	eb0001aa 	bl	900c <full_except_install>
    8960:	e59f00a4 	ldr	r0, [pc, #164]	; 8a0c <mini_step_init+0x100>
    8964:	eb000196 	bl	8fc4 <full_except_set_prefetch>
    8968:	ee103eb0 	mrc	14, 0, r3, cr0, cr0, {5}
    896c:	e3130001 	tst	r3, #1, 0
    8970:	1a000014 	bne	89c8 <mini_step_init+0xbc>
    8974:	ee103eb0 	mrc	14, 0, r3, cr0, cr0, {5}
    8978:	e3130001 	tst	r3, #1, 0
    897c:	1a000019 	bne	89e8 <mini_step_init+0xdc>
    8980:	e28dd00c 	add	sp, sp, #12, 0
    8984:	e49df004 	pop	{pc}		; (ldr pc, [sp], #4)
    8988:	e59f3080 	ldr	r3, [pc, #128]	; 8a10 <mini_step_init+0x104>
    898c:	e58d3000 	str	r3, [sp]
    8990:	e3a030a9 	mov	r3, #169, 0	; 0xa9
    8994:	e59f2078 	ldr	r2, [pc, #120]	; 8a14 <mini_step_init+0x108>
    8998:	e59f1078 	ldr	r1, [pc, #120]	; 8a18 <mini_step_init+0x10c>
    899c:	e59f0078 	ldr	r0, [pc, #120]	; 8a1c <mini_step_init+0x110>
    89a0:	eb00066c 	bl	a358 <printk>
    89a4:	eb00079b 	bl	a818 <clean_reboot>
    89a8:	e59f3070 	ldr	r3, [pc, #112]	; 8a20 <mini_step_init+0x114>
    89ac:	e58d3000 	str	r3, [sp]
    89b0:	e3a03085 	mov	r3, #133, 0	; 0x85
    89b4:	e59f2068 	ldr	r2, [pc, #104]	; 8a24 <mini_step_init+0x118>
    89b8:	e59f1068 	ldr	r1, [pc, #104]	; 8a28 <mini_step_init+0x11c>
    89bc:	e59f0058 	ldr	r0, [pc, #88]	; 8a1c <mini_step_init+0x110>
    89c0:	eb000664 	bl	a358 <printk>
    89c4:	eb000793 	bl	a818 <clean_reboot>
    89c8:	e59f305c 	ldr	r3, [pc, #92]	; 8a2c <mini_step_init+0x120>
    89cc:	e58d3000 	str	r3, [sp]
    89d0:	e3a0308e 	mov	r3, #142, 0	; 0x8e
    89d4:	e59f2048 	ldr	r2, [pc, #72]	; 8a24 <mini_step_init+0x118>
    89d8:	e59f1048 	ldr	r1, [pc, #72]	; 8a28 <mini_step_init+0x11c>
    89dc:	e59f0038 	ldr	r0, [pc, #56]	; 8a1c <mini_step_init+0x110>
    89e0:	eb00065c 	bl	a358 <printk>
    89e4:	eb00078b 	bl	a818 <clean_reboot>
    89e8:	e59f303c 	ldr	r3, [pc, #60]	; 8a2c <mini_step_init+0x120>
    89ec:	e58d3000 	str	r3, [sp]
    89f0:	e3a0308f 	mov	r3, #143, 0	; 0x8f
    89f4:	e59f2028 	ldr	r2, [pc, #40]	; 8a24 <mini_step_init+0x118>
    89f8:	e59f1028 	ldr	r1, [pc, #40]	; 8a28 <mini_step_init+0x11c>
    89fc:	e59f0018 	ldr	r0, [pc, #24]	; 8a1c <mini_step_init+0x110>
    8a00:	eb000654 	bl	a358 <printk>
    8a04:	eb000783 	bl	a818 <clean_reboot>
    8a08:	0000c0e4 	.word	0x0000c0e4
    8a0c:	00008750 	.word	0x00008750
    8a10:	0000b23c 	.word	0x0000b23c
    8a14:	0000b404 	.word	0x0000b404
    8a18:	0000b1f8 	.word	0x0000b1f8
    8a1c:	0000b20c 	.word	0x0000b20c
    8a20:	0000b380 	.word	0x0000b380
    8a24:	0000b420 	.word	0x0000b420
    8a28:	0000b2c8 	.word	0x0000b2c8
    8a2c:	0000b250 	.word	0x0000b250

00008a30 <mini_step_run>:
    8a30:	e92d4070 	push	{r4, r5, r6, lr}
    8a34:	e24dd050 	sub	sp, sp, #80, 0	; 0x50
    8a38:	e1a05000 	mov	r5, r0
    8a3c:	e59f31a8 	ldr	r3, [pc, #424]	; 8bec <mini_step_run+0x1bc>
    8a40:	e5933050 	ldr	r3, [r3, #80]	; 0x50
    8a44:	e3530000 	cmp	r3, #0, 0
    8a48:	0a000011 	beq	8a94 <mini_step_run+0x64>
    8a4c:	e59f3198 	ldr	r3, [pc, #408]	; 8bec <mini_step_run+0x1bc>
    8a50:	e5933050 	ldr	r3, [r3, #80]	; 0x50
    8a54:	e2836902 	add	r6, r3, #32768	; 0x8000
    8a58:	e10f3000 	mrs	r3, CPSR
    8a5c:	e3c3320f 	bic	r3, r3, #-268435456	; 0xf0000000
    8a60:	e3c3301f 	bic	r3, r3, #31, 0
    8a64:	e3834010 	orr	r4, r3, #16, 0
    8a68:	e3a03010 	mov	r3, #16, 0
    8a6c:	e3530000 	cmp	r3, #0, 0
    8a70:	1a00000c 	bne	8aa8 <mini_step_run+0x78>
    8a74:	e58d3004 	str	r3, [sp, #4]
    8a78:	e58d3000 	str	r3, [sp]
    8a7c:	e3a03013 	mov	r3, #19, 0
    8a80:	e59f2168 	ldr	r2, [pc, #360]	; 8bf0 <mini_step_run+0x1c0>
    8a84:	e59f1168 	ldr	r1, [pc, #360]	; 8bf4 <mini_step_run+0x1c4>
    8a88:	e59f0168 	ldr	r0, [pc, #360]	; 8bf8 <mini_step_run+0x1c8>
    8a8c:	eb000631 	bl	a358 <printk>
    8a90:	eb000760 	bl	a818 <clean_reboot>
    8a94:	e3a00902 	mov	r0, #32768	; 0x8000
    8a98:	eb0008e3 	bl	ae2c <kmalloc>
    8a9c:	e59f3148 	ldr	r3, [pc, #328]	; 8bec <mini_step_run+0x1bc>
    8aa0:	e5830050 	str	r0, [r3, #80]	; 0x50
    8aa4:	eaffffe8 	b	8a4c <mini_step_run+0x1c>
    8aa8:	e3530010 	cmp	r3, #16, 0
    8aac:	1a00002a 	bne	8b5c <mini_step_run+0x12c>
    8ab0:	e3a02034 	mov	r2, #52, 0	; 0x34
    8ab4:	e3a01000 	mov	r1, #0, 0
    8ab8:	e28d000c 	add	r0, sp, #12, 0
    8abc:	eb0005fd 	bl	a2b8 <memset>
    8ac0:	e58d6040 	str	r6, [sp, #64]	; 0x40
    8ac4:	e59f3130 	ldr	r3, [pc, #304]	; 8bfc <mini_step_run+0x1cc>
    8ac8:	e58d3044 	str	r3, [sp, #68]	; 0x44
    8acc:	e58d5048 	str	r5, [sp, #72]	; 0x48
    8ad0:	e58d404c 	str	r4, [sp, #76]	; 0x4c
    8ad4:	ebffff3f 	bl	87d8 <mismatch_on>
    8ad8:	e10f3000 	mrs	r3, CPSR
    8adc:	e203301f 	and	r3, r3, #31, 0
    8ae0:	e3530012 	cmp	r3, #18, 0
    8ae4:	13530010 	cmpne	r3, #16, 0
    8ae8:	0a000005 	beq	8b04 <mini_step_run+0xd4>
    8aec:	e3530017 	cmp	r3, #23, 0
    8af0:	13530013 	cmpne	r3, #19, 0
    8af4:	0a000002 	beq	8b04 <mini_step_run+0xd4>
    8af8:	e353001f 	cmp	r3, #31, 0
    8afc:	1353001b 	cmpne	r3, #27, 0
    8b00:	1a00001d 	bne	8b7c <mini_step_run+0x14c>
    8b04:	e3530010 	cmp	r3, #16, 0
    8b08:	0a000023 	beq	8b9c <mini_step_run+0x16c>
    8b0c:	e59d304c 	ldr	r3, [sp, #76]	; 0x4c
    8b10:	e203301f 	and	r3, r3, #31, 0
    8b14:	e3530012 	cmp	r3, #18, 0
    8b18:	13530010 	cmpne	r3, #16, 0
    8b1c:	0a000005 	beq	8b38 <mini_step_run+0x108>
    8b20:	e3530017 	cmp	r3, #23, 0
    8b24:	13530013 	cmpne	r3, #19, 0
    8b28:	0a000002 	beq	8b38 <mini_step_run+0x108>
    8b2c:	e353001f 	cmp	r3, #31, 0
    8b30:	1353001b 	cmpne	r3, #27, 0
    8b34:	1a000020 	bne	8bbc <mini_step_run+0x18c>
    8b38:	e3530010 	cmp	r3, #16, 0
    8b3c:	0a000026 	beq	8bdc <mini_step_run+0x1ac>
    8b40:	e28d100c 	add	r1, sp, #12, 0
    8b44:	e59f00b4 	ldr	r0, [pc, #180]	; 8c00 <mini_step_run+0x1d0>
    8b48:	eb0001cd 	bl	9284 <cswitchto_priv_asm>
    8b4c:	ebffff52 	bl	889c <mismatch_off>
    8b50:	e59d000c 	ldr	r0, [sp, #12]
    8b54:	e28dd050 	add	sp, sp, #80, 0	; 0x50
    8b58:	e8bd8070 	pop	{r4, r5, r6, pc}
    8b5c:	e59f30a0 	ldr	r3, [pc, #160]	; 8c04 <mini_step_run+0x1d4>
    8b60:	e58d3000 	str	r3, [sp]
    8b64:	e3a030a3 	mov	r3, #163, 0	; 0xa3
    8b68:	e59f2098 	ldr	r2, [pc, #152]	; 8c08 <mini_step_run+0x1d8>
    8b6c:	e59f1098 	ldr	r1, [pc, #152]	; 8c0c <mini_step_run+0x1dc>
    8b70:	e59f0098 	ldr	r0, [pc, #152]	; 8c10 <mini_step_run+0x1e0>
    8b74:	eb0005f7 	bl	a358 <printk>
    8b78:	eb000726 	bl	a818 <clean_reboot>
    8b7c:	e58d3004 	str	r3, [sp, #4]
    8b80:	e58d3000 	str	r3, [sp]
    8b84:	e3a03013 	mov	r3, #19, 0
    8b88:	e59f2060 	ldr	r2, [pc, #96]	; 8bf0 <mini_step_run+0x1c0>
    8b8c:	e59f1060 	ldr	r1, [pc, #96]	; 8bf4 <mini_step_run+0x1c4>
    8b90:	e59f0060 	ldr	r0, [pc, #96]	; 8bf8 <mini_step_run+0x1c8>
    8b94:	eb0005ef 	bl	a358 <printk>
    8b98:	eb00071e 	bl	a818 <clean_reboot>
    8b9c:	e59f3070 	ldr	r3, [pc, #112]	; 8c14 <mini_step_run+0x1e4>
    8ba0:	e58d3000 	str	r3, [sp]
    8ba4:	e3a03060 	mov	r3, #96, 0	; 0x60
    8ba8:	e59f2068 	ldr	r2, [pc, #104]	; 8c18 <mini_step_run+0x1e8>
    8bac:	e59f1068 	ldr	r1, [pc, #104]	; 8c1c <mini_step_run+0x1ec>
    8bb0:	e59f0058 	ldr	r0, [pc, #88]	; 8c10 <mini_step_run+0x1e0>
    8bb4:	eb0005e7 	bl	a358 <printk>
    8bb8:	eb000716 	bl	a818 <clean_reboot>
    8bbc:	e58d3004 	str	r3, [sp, #4]
    8bc0:	e58d3000 	str	r3, [sp]
    8bc4:	e3a03013 	mov	r3, #19, 0
    8bc8:	e59f2020 	ldr	r2, [pc, #32]	; 8bf0 <mini_step_run+0x1c0>
    8bcc:	e59f1020 	ldr	r1, [pc, #32]	; 8bf4 <mini_step_run+0x1c4>
    8bd0:	e59f0020 	ldr	r0, [pc, #32]	; 8bf8 <mini_step_run+0x1c8>
    8bd4:	eb0005df 	bl	a358 <printk>
    8bd8:	eb00070e 	bl	a818 <clean_reboot>
    8bdc:	e28d100c 	add	r1, sp, #12, 0
    8be0:	e59f0018 	ldr	r0, [pc, #24]	; 8c00 <mini_step_run+0x1d0>
    8be4:	eb0001c1 	bl	92f0 <cswitchto_user_asm>
    8be8:	eaffffd7 	b	8b4c <mini_step_run+0x11c>
    8bec:	0000c0e4 	.word	0x0000c0e4
    8bf0:	0000b3dc 	.word	0x0000b3dc
    8bf4:	0000b1c0 	.word	0x0000b1c0
    8bf8:	0000b1cc 	.word	0x0000b1cc
    8bfc:	000085b0 	.word	0x000085b0
    8c00:	0000c0e8 	.word	0x0000c0e8
    8c04:	0000b384 	.word	0x0000b384
    8c08:	0000b430 	.word	0x0000b430
    8c0c:	0000b2c8 	.word	0x0000b2c8
    8c10:	0000b20c 	.word	0x0000b20c
    8c14:	0000b3ac 	.word	0x0000b3ac
    8c18:	0000b440 	.word	0x0000b440
    8c1c:	0000b3a0 	.word	0x0000b3a0

00008c20 <mismatch_run>:
    8c20:	e92d4010 	push	{r4, lr}
    8c24:	e1a04000 	mov	r4, r0
    8c28:	e590003c 	ldr	r0, [r0, #60]	; 0x3c
    8c2c:	ebfffe8a 	bl	865c <mismatch_pc_set>
    8c30:	eb0004f6 	bl	a010 <uart_can_put8>
    8c34:	e3500000 	cmp	r0, #0, 0
    8c38:	0afffffc 	beq	8c30 <mismatch_run+0x10>
    8c3c:	e1a00004 	mov	r0, r4
    8c40:	ebfffe7b 	bl	8634 <switchto>

00008c44 <mode_get>:
    8c44:	e200001f 	and	r0, r0, #31, 0
    8c48:	e3500012 	cmp	r0, #18, 0
    8c4c:	13500010 	cmpne	r0, #16, 0
    8c50:	012fff1e 	bxeq	lr
    8c54:	e3500017 	cmp	r0, #23, 0
    8c58:	13500013 	cmpne	r0, #19, 0
    8c5c:	012fff1e 	bxeq	lr
    8c60:	e350001f 	cmp	r0, #31, 0
    8c64:	1350001b 	cmpne	r0, #27, 0
    8c68:	012fff1e 	bxeq	lr
    8c6c:	e52de004 	push	{lr}		; (str lr, [sp, #-4]!)
    8c70:	e24dd00c 	sub	sp, sp, #12, 0
    8c74:	e58d0004 	str	r0, [sp, #4]
    8c78:	e58d0000 	str	r0, [sp]
    8c7c:	e3a03013 	mov	r3, #19, 0
    8c80:	e59f200c 	ldr	r2, [pc, #12]	; 8c94 <mode_get+0x50>
    8c84:	e59f100c 	ldr	r1, [pc, #12]	; 8c98 <mode_get+0x54>
    8c88:	e59f000c 	ldr	r0, [pc, #12]	; 8c9c <mode_get+0x58>
    8c8c:	eb0005b1 	bl	a358 <printk>
    8c90:	eb0006e0 	bl	a818 <clean_reboot>
    8c94:	0000b6e4 	.word	0x0000b6e4
    8c98:	0000b1c0 	.word	0x0000b1c0
    8c9c:	0000b1cc 	.word	0x0000b1cc

00008ca0 <switchto>:
    8ca0:	e92d4010 	push	{r4, lr}
    8ca4:	e1a04000 	mov	r4, r0
    8ca8:	e5900040 	ldr	r0, [r0, #64]	; 0x40
    8cac:	ebffffe4 	bl	8c44 <mode_get>
    8cb0:	e3500010 	cmp	r0, #16, 0
    8cb4:	0a000001 	beq	8cc0 <switchto+0x20>
    8cb8:	e1a00004 	mov	r0, r4
    8cbc:	eb000161 	bl	9248 <switchto_priv_asm>
    8cc0:	e1a00004 	mov	r0, r4
    8cc4:	eb00014e 	bl	9204 <switchto_user_asm>

00008cc8 <prefetch_abort_full_except>:
    8cc8:	e52de004 	push	{lr}		; (str lr, [sp, #-4]!)
    8ccc:	e24dd00c 	sub	sp, sp, #12, 0
    8cd0:	e5903040 	ldr	r3, [r0, #64]	; 0x40
    8cd4:	e1530001 	cmp	r3, r1
    8cd8:	1a000016 	bne	8d38 <prefetch_abort_full_except+0x70>
    8cdc:	e1a04000 	mov	r4, r0
    8ce0:	e1a05001 	mov	r5, r1
    8ce4:	e590303c 	ldr	r3, [r0, #60]	; 0x3c
    8ce8:	e1530002 	cmp	r3, r2
    8cec:	1a000019 	bne	8d58 <prefetch_abort_full_except+0x90>
    8cf0:	e59f309c 	ldr	r3, [pc, #156]	; 8d94 <prefetch_abort_full_except+0xcc>
    8cf4:	e5933000 	ldr	r3, [r3]
    8cf8:	e3530000 	cmp	r3, #0, 0
    8cfc:	0a00001d 	beq	8d78 <prefetch_abort_full_except+0xb0>
    8d00:	e1a00001 	mov	r0, r1
    8d04:	ebffffce 	bl	8c44 <mode_get>
    8d08:	e3500010 	cmp	r0, #16, 0
    8d0c:	0a000003 	beq	8d20 <prefetch_abort_full_except+0x58>
    8d10:	e2842038 	add	r2, r4, #56, 0	; 0x38
    8d14:	e2841034 	add	r1, r4, #52, 0	; 0x34
    8d18:	e1a00005 	mov	r0, r5
    8d1c:	eb000122 	bl	91ac <priv_get_sp_lr_asm>
    8d20:	e59f306c 	ldr	r3, [pc, #108]	; 8d94 <prefetch_abort_full_except+0xcc>
    8d24:	e5933000 	ldr	r3, [r3]
    8d28:	e1a00004 	mov	r0, r4
    8d2c:	e12fff33 	blx	r3
    8d30:	e1a00004 	mov	r0, r4
    8d34:	ebffffd9 	bl	8ca0 <switchto>
    8d38:	e59f3058 	ldr	r3, [pc, #88]	; 8d98 <prefetch_abort_full_except+0xd0>
    8d3c:	e58d3000 	str	r3, [sp]
    8d40:	e3a03031 	mov	r3, #49, 0	; 0x31
    8d44:	e59f2050 	ldr	r2, [pc, #80]	; 8d9c <prefetch_abort_full_except+0xd4>
    8d48:	e59f1050 	ldr	r1, [pc, #80]	; 8da0 <prefetch_abort_full_except+0xd8>
    8d4c:	e59f0050 	ldr	r0, [pc, #80]	; 8da4 <prefetch_abort_full_except+0xdc>
    8d50:	eb000580 	bl	a358 <printk>
    8d54:	eb0006af 	bl	a818 <clean_reboot>
    8d58:	e59f3048 	ldr	r3, [pc, #72]	; 8da8 <prefetch_abort_full_except+0xe0>
    8d5c:	e58d3000 	str	r3, [sp]
    8d60:	e3a03032 	mov	r3, #50, 0	; 0x32
    8d64:	e59f2030 	ldr	r2, [pc, #48]	; 8d9c <prefetch_abort_full_except+0xd4>
    8d68:	e59f1030 	ldr	r1, [pc, #48]	; 8da0 <prefetch_abort_full_except+0xd8>
    8d6c:	e59f0030 	ldr	r0, [pc, #48]	; 8da4 <prefetch_abort_full_except+0xdc>
    8d70:	eb000578 	bl	a358 <printk>
    8d74:	eb0006a7 	bl	a818 <clean_reboot>
    8d78:	e58d2000 	str	r2, [sp]
    8d7c:	e3a03035 	mov	r3, #53, 0	; 0x35
    8d80:	e59f2014 	ldr	r2, [pc, #20]	; 8d9c <prefetch_abort_full_except+0xd4>
    8d84:	e59f1014 	ldr	r1, [pc, #20]	; 8da0 <prefetch_abort_full_except+0xd8>
    8d88:	e59f001c 	ldr	r0, [pc, #28]	; 8dac <prefetch_abort_full_except+0xe4>
    8d8c:	eb000571 	bl	a358 <printk>
    8d90:	eb0006a0 	bl	a818 <clean_reboot>
    8d94:	0000c138 	.word	0x0000c138
    8d98:	0000b468 	.word	0x0000b468
    8d9c:	0000b6f0 	.word	0x0000b6f0
    8da0:	0000b454 	.word	0x0000b454
    8da4:	0000b20c 	.word	0x0000b20c
    8da8:	0000b484 	.word	0x0000b484
    8dac:	0000b49c 	.word	0x0000b49c

00008db0 <data_abort_full_except>:
    8db0:	e52de004 	push	{lr}		; (str lr, [sp, #-4]!)
    8db4:	e24dd00c 	sub	sp, sp, #12, 0
    8db8:	e5903040 	ldr	r3, [r0, #64]	; 0x40
    8dbc:	e1530001 	cmp	r3, r1
    8dc0:	1a000016 	bne	8e20 <data_abort_full_except+0x70>
    8dc4:	e1a04000 	mov	r4, r0
    8dc8:	e1a05001 	mov	r5, r1
    8dcc:	e590303c 	ldr	r3, [r0, #60]	; 0x3c
    8dd0:	e1530002 	cmp	r3, r2
    8dd4:	1a000019 	bne	8e40 <data_abort_full_except+0x90>
    8dd8:	e59f309c 	ldr	r3, [pc, #156]	; 8e7c <data_abort_full_except+0xcc>
    8ddc:	e5933004 	ldr	r3, [r3, #4]
    8de0:	e3530000 	cmp	r3, #0, 0
    8de4:	0a00001d 	beq	8e60 <data_abort_full_except+0xb0>
    8de8:	e1a00001 	mov	r0, r1
    8dec:	ebffff94 	bl	8c44 <mode_get>
    8df0:	e3500010 	cmp	r0, #16, 0
    8df4:	0a000003 	beq	8e08 <data_abort_full_except+0x58>
    8df8:	e2842038 	add	r2, r4, #56, 0	; 0x38
    8dfc:	e2841034 	add	r1, r4, #52, 0	; 0x34
    8e00:	e1a00005 	mov	r0, r5
    8e04:	eb0000e8 	bl	91ac <priv_get_sp_lr_asm>
    8e08:	e59f306c 	ldr	r3, [pc, #108]	; 8e7c <data_abort_full_except+0xcc>
    8e0c:	e5933004 	ldr	r3, [r3, #4]
    8e10:	e1a00004 	mov	r0, r4
    8e14:	e12fff33 	blx	r3
    8e18:	e1a00004 	mov	r0, r4
    8e1c:	ebffff9f 	bl	8ca0 <switchto>
    8e20:	e59f3058 	ldr	r3, [pc, #88]	; 8e80 <data_abort_full_except+0xd0>
    8e24:	e58d3000 	str	r3, [sp]
    8e28:	e3a0303e 	mov	r3, #62, 0	; 0x3e
    8e2c:	e59f2050 	ldr	r2, [pc, #80]	; 8e84 <data_abort_full_except+0xd4>
    8e30:	e59f1050 	ldr	r1, [pc, #80]	; 8e88 <data_abort_full_except+0xd8>
    8e34:	e59f0050 	ldr	r0, [pc, #80]	; 8e8c <data_abort_full_except+0xdc>
    8e38:	eb000546 	bl	a358 <printk>
    8e3c:	eb000675 	bl	a818 <clean_reboot>
    8e40:	e59f3048 	ldr	r3, [pc, #72]	; 8e90 <data_abort_full_except+0xe0>
    8e44:	e58d3000 	str	r3, [sp]
    8e48:	e3a0303f 	mov	r3, #63, 0	; 0x3f
    8e4c:	e59f2030 	ldr	r2, [pc, #48]	; 8e84 <data_abort_full_except+0xd4>
    8e50:	e59f1030 	ldr	r1, [pc, #48]	; 8e88 <data_abort_full_except+0xd8>
    8e54:	e59f0030 	ldr	r0, [pc, #48]	; 8e8c <data_abort_full_except+0xdc>
    8e58:	eb00053e 	bl	a358 <printk>
    8e5c:	eb00066d 	bl	a818 <clean_reboot>
    8e60:	e58d2000 	str	r2, [sp]
    8e64:	e3a03042 	mov	r3, #66, 0	; 0x42
    8e68:	e59f2014 	ldr	r2, [pc, #20]	; 8e84 <data_abort_full_except+0xd4>
    8e6c:	e59f1014 	ldr	r1, [pc, #20]	; 8e88 <data_abort_full_except+0xd8>
    8e70:	e59f001c 	ldr	r0, [pc, #28]	; 8e94 <data_abort_full_except+0xe4>
    8e74:	eb000537 	bl	a358 <printk>
    8e78:	eb000666 	bl	a818 <clean_reboot>
    8e7c:	0000c138 	.word	0x0000c138
    8e80:	0000b468 	.word	0x0000b468
    8e84:	0000b70c 	.word	0x0000b70c
    8e88:	0000b454 	.word	0x0000b454
    8e8c:	0000b20c 	.word	0x0000b20c
    8e90:	0000b484 	.word	0x0000b484
    8e94:	0000b4d4 	.word	0x0000b4d4

00008e98 <syscall_full_except>:
    8e98:	e52de004 	push	{lr}		; (str lr, [sp, #-4]!)
    8e9c:	e24dd014 	sub	sp, sp, #20, 0
    8ea0:	e5903040 	ldr	r3, [r0, #64]	; 0x40
    8ea4:	e1530001 	cmp	r3, r1
    8ea8:	1a00000c 	bne	8ee0 <syscall_full_except+0x48>
    8eac:	e1a04000 	mov	r4, r0
    8eb0:	e1a05002 	mov	r5, r2
    8eb4:	e590303c 	ldr	r3, [r0, #60]	; 0x3c
    8eb8:	e1530002 	cmp	r3, r2
    8ebc:	0a00000f 	beq	8f00 <syscall_full_except+0x68>
    8ec0:	e59f30d0 	ldr	r3, [pc, #208]	; 8f98 <syscall_full_except+0x100>
    8ec4:	e58d3000 	str	r3, [sp]
    8ec8:	e3a0304d 	mov	r3, #77, 0	; 0x4d
    8ecc:	e59f20c8 	ldr	r2, [pc, #200]	; 8f9c <syscall_full_except+0x104>
    8ed0:	e59f10c8 	ldr	r1, [pc, #200]	; 8fa0 <syscall_full_except+0x108>
    8ed4:	e59f00c8 	ldr	r0, [pc, #200]	; 8fa4 <syscall_full_except+0x10c>
    8ed8:	eb00051e 	bl	a358 <printk>
    8edc:	eb00064d 	bl	a818 <clean_reboot>
    8ee0:	e59f30c0 	ldr	r3, [pc, #192]	; 8fa8 <syscall_full_except+0x110>
    8ee4:	e58d3000 	str	r3, [sp]
    8ee8:	e3a0304c 	mov	r3, #76, 0	; 0x4c
    8eec:	e59f20a8 	ldr	r2, [pc, #168]	; 8f9c <syscall_full_except+0x104>
    8ef0:	e59f10a8 	ldr	r1, [pc, #168]	; 8fa0 <syscall_full_except+0x108>
    8ef4:	e59f00a8 	ldr	r0, [pc, #168]	; 8fa4 <syscall_full_except+0x10c>
    8ef8:	eb000516 	bl	a358 <printk>
    8efc:	eb000645 	bl	a818 <clean_reboot>
    8f00:	e1a00001 	mov	r0, r1
    8f04:	ebffff4e 	bl	8c44 <mode_get>
    8f08:	e3500010 	cmp	r0, #16, 0
    8f0c:	1a00000c 	bne	8f44 <syscall_full_except+0xac>
    8f10:	e28d200c 	add	r2, sp, #12, 0
    8f14:	e59f3090 	ldr	r3, [pc, #144]	; 8fac <syscall_full_except+0x114>
    8f18:	e1520003 	cmp	r2, r3
    8f1c:	9a00000e 	bls	8f5c <syscall_full_except+0xc4>
    8f20:	e59f3088 	ldr	r3, [pc, #136]	; 8fb0 <syscall_full_except+0x118>
    8f24:	e5933008 	ldr	r3, [r3, #8]
    8f28:	e3530000 	cmp	r3, #0, 0
    8f2c:	0a000012 	beq	8f7c <syscall_full_except+0xe4>
    8f30:	e1a00004 	mov	r0, r4
    8f34:	e12fff33 	blx	r3
    8f38:	e5840000 	str	r0, [r4]
    8f3c:	e1a00004 	mov	r0, r4
    8f40:	ebffff56 	bl	8ca0 <switchto>
    8f44:	e3a03050 	mov	r3, #80, 0	; 0x50
    8f48:	e59f204c 	ldr	r2, [pc, #76]	; 8f9c <syscall_full_except+0x104>
    8f4c:	e59f104c 	ldr	r1, [pc, #76]	; 8fa0 <syscall_full_except+0x108>
    8f50:	e59f005c 	ldr	r0, [pc, #92]	; 8fb4 <syscall_full_except+0x11c>
    8f54:	eb0004ff 	bl	a358 <printk>
    8f58:	eb00062e 	bl	a818 <clean_reboot>
    8f5c:	e59f3054 	ldr	r3, [pc, #84]	; 8fb8 <syscall_full_except+0x120>
    8f60:	e58d3000 	str	r3, [sp]
    8f64:	e3a03055 	mov	r3, #85, 0	; 0x55
    8f68:	e59f202c 	ldr	r2, [pc, #44]	; 8f9c <syscall_full_except+0x104>
    8f6c:	e59f102c 	ldr	r1, [pc, #44]	; 8fa0 <syscall_full_except+0x108>
    8f70:	e59f0044 	ldr	r0, [pc, #68]	; 8fbc <syscall_full_except+0x124>
    8f74:	eb0004f7 	bl	a358 <printk>
    8f78:	eb000626 	bl	a818 <clean_reboot>
    8f7c:	e58d5000 	str	r5, [sp]
    8f80:	e3a0305a 	mov	r3, #90, 0	; 0x5a
    8f84:	e59f2010 	ldr	r2, [pc, #16]	; 8f9c <syscall_full_except+0x104>
    8f88:	e59f1010 	ldr	r1, [pc, #16]	; 8fa0 <syscall_full_except+0x108>
    8f8c:	e59f002c 	ldr	r0, [pc, #44]	; 8fc0 <syscall_full_except+0x128>
    8f90:	eb0004f0 	bl	a358 <printk>
    8f94:	eb00061f 	bl	a818 <clean_reboot>
    8f98:	0000b484 	.word	0x0000b484
    8f9c:	0000b724 	.word	0x0000b724
    8fa0:	0000b454 	.word	0x0000b454
    8fa4:	0000b20c 	.word	0x0000b20c
    8fa8:	0000b468 	.word	0x0000b468
    8fac:	000186a0 	.word	0x000186a0
    8fb0:	0000c138 	.word	0x0000c138
    8fb4:	0000b508 	.word	0x0000b508
    8fb8:	0000b588 	.word	0x0000b588
    8fbc:	0000b544 	.word	0x0000b544
    8fc0:	0000b5a0 	.word	0x0000b5a0

00008fc4 <full_except_set_prefetch>:
    8fc4:	e59f300c 	ldr	r3, [pc, #12]	; 8fd8 <full_except_set_prefetch+0x14>
    8fc8:	e5932000 	ldr	r2, [r3]
    8fcc:	e5830000 	str	r0, [r3]
    8fd0:	e1a00002 	mov	r0, r2
    8fd4:	e12fff1e 	bx	lr
    8fd8:	0000c138 	.word	0x0000c138

00008fdc <full_except_set_data_abort>:
    8fdc:	e59f300c 	ldr	r3, [pc, #12]	; 8ff0 <full_except_set_data_abort+0x14>
    8fe0:	e5932004 	ldr	r2, [r3, #4]
    8fe4:	e5830004 	str	r0, [r3, #4]
    8fe8:	e1a00002 	mov	r0, r2
    8fec:	e12fff1e 	bx	lr
    8ff0:	0000c138 	.word	0x0000c138

00008ff4 <full_except_set_syscall>:
    8ff4:	e59f300c 	ldr	r3, [pc, #12]	; 9008 <full_except_set_syscall+0x14>
    8ff8:	e5932008 	ldr	r2, [r3, #8]
    8ffc:	e5830008 	str	r0, [r3, #8]
    9000:	e1a00002 	mov	r0, r2
    9004:	e12fff1e 	bx	lr
    9008:	0000c138 	.word	0x0000c138

0000900c <full_except_install>:
    900c:	e52de004 	push	{lr}		; (str lr, [sp, #-4]!)
    9010:	e24dd00c 	sub	sp, sp, #12, 0
    9014:	e3500000 	cmp	r0, #0, 0
    9018:	1a000007 	bne	903c <full_except_install+0x30>
    901c:	ee1c3f10 	mrc	15, 0, r3, cr12, cr0, {0}
    9020:	e3530000 	cmp	r3, #0, 0
    9024:	0a00002a 	beq	90d4 <full_except_install+0xc8>
    9028:	e59f2158 	ldr	r2, [pc, #344]	; 9188 <full_except_install+0x17c>
    902c:	e1530002 	cmp	r3, r2
    9030:	1a00004d 	bne	916c <full_except_install+0x160>
    9034:	e28dd00c 	add	sp, sp, #12, 0
    9038:	e49df004 	pop	{pc}		; (ldr pc, [sp], #4)
    903c:	e59f3144 	ldr	r3, [pc, #324]	; 9188 <full_except_install+0x17c>
    9040:	e313001f 	tst	r3, #31, 0
    9044:	1a000013 	bne	9098 <full_except_install+0x8c>
    9048:	ee1c2f10 	mrc	15, 0, r2, cr12, cr0, {0}
    904c:	e1520003 	cmp	r2, r3
    9050:	0afffff7 	beq	9034 <full_except_install+0x28>
    9054:	e3520000 	cmp	r2, #0, 0
    9058:	1a000016 	bne	90b8 <full_except_install+0xac>
    905c:	ee0c3f10 	mcr	15, 0, r3, cr12, cr0, {0}
    9060:	e3a03000 	mov	r3, #0, 0
    9064:	ee073f95 	mcr	15, 0, r3, cr7, cr5, {4}
    9068:	ee1c3f10 	mrc	15, 0, r3, cr12, cr0, {0}
    906c:	e59f2114 	ldr	r2, [pc, #276]	; 9188 <full_except_install+0x17c>
    9070:	e1530002 	cmp	r3, r2
    9074:	0affffee 	beq	9034 <full_except_install+0x28>
    9078:	e58d3004 	str	r3, [sp, #4]
    907c:	e58d2000 	str	r2, [sp]
    9080:	e3a03039 	mov	r3, #57, 0	; 0x39
    9084:	e59f2100 	ldr	r2, [pc, #256]	; 918c <full_except_install+0x180>
    9088:	e59f1100 	ldr	r1, [pc, #256]	; 9190 <full_except_install+0x184>
    908c:	e59f0100 	ldr	r0, [pc, #256]	; 9194 <full_except_install+0x188>
    9090:	eb0004b0 	bl	a358 <printk>
    9094:	eb0005df 	bl	a818 <clean_reboot>
    9098:	e59f30e8 	ldr	r3, [pc, #232]	; 9188 <full_except_install+0x17c>
    909c:	e58d3000 	str	r3, [sp]
    90a0:	e3a03029 	mov	r3, #41, 0	; 0x29
    90a4:	e59f20e0 	ldr	r2, [pc, #224]	; 918c <full_except_install+0x180>
    90a8:	e59f10e0 	ldr	r1, [pc, #224]	; 9190 <full_except_install+0x184>
    90ac:	e59f00e4 	ldr	r0, [pc, #228]	; 9198 <full_except_install+0x18c>
    90b0:	eb0004a8 	bl	a358 <printk>
    90b4:	eb0005d7 	bl	a818 <clean_reboot>
    90b8:	e58d2000 	str	r2, [sp]
    90bc:	e3a03031 	mov	r3, #49, 0	; 0x31
    90c0:	e59f20c4 	ldr	r2, [pc, #196]	; 918c <full_except_install+0x180>
    90c4:	e59f10c4 	ldr	r1, [pc, #196]	; 9190 <full_except_install+0x184>
    90c8:	e59f00cc 	ldr	r0, [pc, #204]	; 919c <full_except_install+0x190>
    90cc:	eb0004a1 	bl	a358 <printk>
    90d0:	eb0005d0 	bl	a818 <clean_reboot>
    90d4:	e59f30ac 	ldr	r3, [pc, #172]	; 9188 <full_except_install+0x17c>
    90d8:	e313001f 	tst	r3, #31, 0
    90dc:	1a000013 	bne	9130 <full_except_install+0x124>
    90e0:	ee1c2f10 	mrc	15, 0, r2, cr12, cr0, {0}
    90e4:	e1520003 	cmp	r2, r3
    90e8:	0affffd1 	beq	9034 <full_except_install+0x28>
    90ec:	e3520000 	cmp	r2, #0, 0
    90f0:	1a000016 	bne	9150 <full_except_install+0x144>
    90f4:	ee0c3f10 	mcr	15, 0, r3, cr12, cr0, {0}
    90f8:	e3a03000 	mov	r3, #0, 0
    90fc:	ee073f95 	mcr	15, 0, r3, cr7, cr5, {4}
    9100:	ee1c3f10 	mrc	15, 0, r3, cr12, cr0, {0}
    9104:	e59f207c 	ldr	r2, [pc, #124]	; 9188 <full_except_install+0x17c>
    9108:	e1530002 	cmp	r3, r2
    910c:	0affffc8 	beq	9034 <full_except_install+0x28>
    9110:	e58d3004 	str	r3, [sp, #4]
    9114:	e58d2000 	str	r2, [sp]
    9118:	e3a03039 	mov	r3, #57, 0	; 0x39
    911c:	e59f2068 	ldr	r2, [pc, #104]	; 918c <full_except_install+0x180>
    9120:	e59f1068 	ldr	r1, [pc, #104]	; 9190 <full_except_install+0x184>
    9124:	e59f0068 	ldr	r0, [pc, #104]	; 9194 <full_except_install+0x188>
    9128:	eb00048a 	bl	a358 <printk>
    912c:	eb0005b9 	bl	a818 <clean_reboot>
    9130:	e59f3050 	ldr	r3, [pc, #80]	; 9188 <full_except_install+0x17c>
    9134:	e58d3000 	str	r3, [sp]
    9138:	e3a03029 	mov	r3, #41, 0	; 0x29
    913c:	e59f2048 	ldr	r2, [pc, #72]	; 918c <full_except_install+0x180>
    9140:	e59f1048 	ldr	r1, [pc, #72]	; 9190 <full_except_install+0x184>
    9144:	e59f004c 	ldr	r0, [pc, #76]	; 9198 <full_except_install+0x18c>
    9148:	eb000482 	bl	a358 <printk>
    914c:	eb0005b1 	bl	a818 <clean_reboot>
    9150:	e58d2000 	str	r2, [sp]
    9154:	e3a03031 	mov	r3, #49, 0	; 0x31
    9158:	e59f202c 	ldr	r2, [pc, #44]	; 918c <full_except_install+0x180>
    915c:	e59f102c 	ldr	r1, [pc, #44]	; 9190 <full_except_install+0x184>
    9160:	e59f0034 	ldr	r0, [pc, #52]	; 919c <full_except_install+0x190>
    9164:	eb00047b 	bl	a358 <printk>
    9168:	eb0005aa 	bl	a818 <clean_reboot>
    916c:	e58d3000 	str	r3, [sp]
    9170:	e3a03089 	mov	r3, #137, 0	; 0x89
    9174:	e59f2024 	ldr	r2, [pc, #36]	; 91a0 <full_except_install+0x194>
    9178:	e59f1024 	ldr	r1, [pc, #36]	; 91a4 <full_except_install+0x198>
    917c:	e59f0024 	ldr	r0, [pc, #36]	; 91a8 <full_except_install+0x19c>
    9180:	eb000474 	bl	a358 <printk>
    9184:	eb0005a3 	bl	a818 <clean_reboot>
    9188:	000094e0 	.word	0x000094e0
    918c:	0000b738 	.word	0x0000b738
    9190:	0000b5d0 	.word	0x0000b5d0
    9194:	0000b674 	.word	0x0000b674
    9198:	0000b614 	.word	0x0000b614
    919c:	0000b63c 	.word	0x0000b63c
    91a0:	0000b748 	.word	0x0000b748
    91a4:	0000b454 	.word	0x0000b454
    91a8:	0000b6a0 	.word	0x0000b6a0

000091ac <priv_get_sp_lr_asm>:
    91ac:	e10f3000 	mrs	r3, CPSR
    91b0:	e121f000 	msr	CPSR_c, r0
    91b4:	e3a0c000 	mov	ip, #0, 0
    91b8:	ee07cf95 	mcr	15, 0, ip, cr7, cr5, {4}
    91bc:	e8812000 	stm	r1, {sp}
    91c0:	e8824000 	stm	r2, {lr}
    91c4:	e121f003 	msr	CPSR_c, r3
    91c8:	e3a0c000 	mov	ip, #0, 0
    91cc:	ee07cf95 	mcr	15, 0, ip, cr7, cr5, {4}
    91d0:	e12fff1e 	bx	lr
    91d4:	e3a0d409 	mov	sp, #150994944	; 0x9000000
    91d8:	e24f0004 	sub	r0, pc, #4, 0
    91dc:	e28f1000 	add	r1, pc, #0, 0
    91e0:	ea000565 	b	a77c <asm_not_reached_helper>
    91e4:	74697773 	.word	0x74697773
    91e8:	6f746863 	.word	0x6f746863
    91ec:	6d73612d 	.word	0x6d73612d
    91f0:	323a532e 	.word	0x323a532e
    91f4:	4e3c3a34 	.word	0x4e3c3a34
    91f8:	5220544f 	.word	0x5220544f
    91fc:	48434145 	.word	0x48434145
    9200:	003e4445 	.word	0x003e4445

00009204 <switchto_user_asm>:
    9204:	e3a0100f 	mov	r1, #15, 0
    9208:	e1a01101 	lsl	r1, r1, #2
    920c:	e080d001 	add	sp, r0, r1
    9210:	e8d07fff 	ldm	r0, {r0, r1, r2, r3, r4, r5, r6, r7, r8, r9, sl, fp, ip, sp, lr}^
    9214:	f89d0a00 	rfeia	sp
    9218:	e3a0d409 	mov	sp, #150994944	; 0x9000000
    921c:	e24f0004 	sub	r0, pc, #4, 0
    9220:	e28f1000 	add	r1, pc, #0, 0
    9224:	ea000554 	b	a77c <asm_not_reached_helper>
    9228:	74697773 	.word	0x74697773
    922c:	6f746863 	.word	0x6f746863
    9230:	6d73612d 	.word	0x6d73612d
    9234:	343a532e 	.word	0x343a532e
    9238:	4e3c3a30 	.word	0x4e3c3a30
    923c:	5220544f 	.word	0x5220544f
    9240:	48434145 	.word	0x48434145
    9244:	003e4445 	.word	0x003e4445

00009248 <switchto_priv_asm>:
    9248:	e5901040 	ldr	r1, [r0, #64]	; 0x40
    924c:	e12ff001 	msr	CPSR_fsxc, r1
    9250:	e890ffff 	ldm	r0, {r0, r1, r2, r3, r4, r5, r6, r7, r8, r9, sl, fp, ip, sp, lr, pc}
    9254:	e3a0d409 	mov	sp, #150994944	; 0x9000000
    9258:	e24f0004 	sub	r0, pc, #4, 0
    925c:	e28f1000 	add	r1, pc, #0, 0
    9260:	ea000545 	b	a77c <asm_not_reached_helper>
    9264:	74697773 	.word	0x74697773
    9268:	6f746863 	.word	0x6f746863
    926c:	6d73612d 	.word	0x6d73612d
    9270:	353a532e 	.word	0x353a532e
    9274:	4e3c3a30 	.word	0x4e3c3a30
    9278:	5220544f 	.word	0x5220544f
    927c:	48434145 	.word	0x48434145
    9280:	003e4445 	.word	0x003e4445

00009284 <cswitchto_priv_asm>:
    9284:	e5804010 	str	r4, [r0, #16]
    9288:	e5805014 	str	r5, [r0, #20]
    928c:	e5806018 	str	r6, [r0, #24]
    9290:	e580701c 	str	r7, [r0, #28]
    9294:	e5808020 	str	r8, [r0, #32]
    9298:	e5809024 	str	r9, [r0, #36]	; 0x24
    929c:	e580a028 	str	sl, [r0, #40]	; 0x28
    92a0:	e580b02c 	str	fp, [r0, #44]	; 0x2c
    92a4:	e580d034 	str	sp, [r0, #52]	; 0x34
    92a8:	e580e038 	str	lr, [r0, #56]	; 0x38
    92ac:	e580e03c 	str	lr, [r0, #60]	; 0x3c
    92b0:	e10fc000 	mrs	ip, CPSR
    92b4:	e580c040 	str	ip, [r0, #64]	; 0x40
    92b8:	e1a00001 	mov	r0, r1
    92bc:	ebffffe1 	bl	9248 <switchto_priv_asm>
    92c0:	e3a0d409 	mov	sp, #150994944	; 0x9000000
    92c4:	e24f0004 	sub	r0, pc, #4, 0
    92c8:	e28f1000 	add	r1, pc, #0, 0
    92cc:	ea00052a 	b	a77c <asm_not_reached_helper>
    92d0:	74697773 	.word	0x74697773
    92d4:	6f746863 	.word	0x6f746863
    92d8:	6d73612d 	.word	0x6d73612d
    92dc:	393a532e 	.word	0x393a532e
    92e0:	4e3c3a33 	.word	0x4e3c3a33
    92e4:	5220544f 	.word	0x5220544f
    92e8:	48434145 	.word	0x48434145
    92ec:	003e4445 	.word	0x003e4445

000092f0 <cswitchto_user_asm>:
    92f0:	e5804010 	str	r4, [r0, #16]
    92f4:	e5805014 	str	r5, [r0, #20]
    92f8:	e5806018 	str	r6, [r0, #24]
    92fc:	e580701c 	str	r7, [r0, #28]
    9300:	e5808020 	str	r8, [r0, #32]
    9304:	e5809024 	str	r9, [r0, #36]	; 0x24
    9308:	e580a028 	str	sl, [r0, #40]	; 0x28
    930c:	e580b02c 	str	fp, [r0, #44]	; 0x2c
    9310:	e580d034 	str	sp, [r0, #52]	; 0x34
    9314:	e580e038 	str	lr, [r0, #56]	; 0x38
    9318:	e580e03c 	str	lr, [r0, #60]	; 0x3c
    931c:	e10fc000 	mrs	ip, CPSR
    9320:	e580c040 	str	ip, [r0, #64]	; 0x40
    9324:	e1a00001 	mov	r0, r1
    9328:	ebffffb5 	bl	9204 <switchto_user_asm>
    932c:	e3a0d409 	mov	sp, #150994944	; 0x9000000
    9330:	e24f0004 	sub	r0, pc, #4, 0
    9334:	e28f1000 	add	r1, pc, #0, 0
    9338:	ea00050f 	b	a77c <asm_not_reached_helper>
    933c:	74697773 	.word	0x74697773
    9340:	6f746863 	.word	0x6f746863
    9344:	6d73612d 	.word	0x6d73612d
    9348:	313a532e 	.word	0x313a532e
    934c:	3c3a3532 	.word	0x3c3a3532
    9350:	20544f4e 	.word	0x20544f4e
    9354:	43414552 	.word	0x43414552
    9358:	3e444548 	.word	0x3e444548
    935c:	00          	.byte	0x00
    935d:	00          	.byte	0x00
	...

00009360 <reset>:
    9360:	e24ee004 	sub	lr, lr, #4, 0
    9364:	e3a0d409 	mov	sp, #150994944	; 0x9000000
    9368:	e92d5fff 	push	{r0, r1, r2, r3, r4, r5, r6, r7, r8, r9, sl, fp, ip, lr}
    936c:	e1a0000e 	mov	r0, lr
    9370:	eb00057a 	bl	a960 <reset_vector>
    9374:	e8bd5fff 	pop	{r0, r1, r2, r3, r4, r5, r6, r7, r8, r9, sl, fp, ip, lr}
    9378:	e1b0f00e 	movs	pc, lr

0000937c <undef>:
    937c:	e24ee004 	sub	lr, lr, #4, 0
    9380:	e3a0d409 	mov	sp, #150994944	; 0x9000000
    9384:	e92d5fff 	push	{r0, r1, r2, r3, r4, r5, r6, r7, r8, r9, sl, fp, ip, lr}
    9388:	e1a0000e 	mov	r0, lr
    938c:	eb000582 	bl	a99c <undefined_instruction_vector>
    9390:	e8bd5fff 	pop	{r0, r1, r2, r3, r4, r5, r6, r7, r8, r9, sl, fp, ip, lr}
    9394:	e1b0f00e 	movs	pc, lr

00009398 <prefetch_abort>:
    9398:	e24ee004 	sub	lr, lr, #4, 0
    939c:	e3a0d409 	mov	sp, #150994944	; 0x9000000
    93a0:	e92d5fff 	push	{r0, r1, r2, r3, r4, r5, r6, r7, r8, r9, sl, fp, ip, lr}
    93a4:	e1a0000e 	mov	r0, lr
    93a8:	eb00055d 	bl	a924 <prefetch_abort_vector>
    93ac:	e8bd5fff 	pop	{r0, r1, r2, r3, r4, r5, r6, r7, r8, r9, sl, fp, ip, lr}
    93b0:	e1b0f00e 	movs	pc, lr

000093b4 <interrupt>:
    93b4:	e24ee004 	sub	lr, lr, #4, 0
    93b8:	e3a0d409 	mov	sp, #150994944	; 0x9000000
    93bc:	e92d5fff 	push	{r0, r1, r2, r3, r4, r5, r6, r7, r8, r9, sl, fp, ip, lr}
    93c0:	e1a0000e 	mov	r0, lr
    93c4:	eb000547 	bl	a8e8 <int_vector>
    93c8:	e8bd5fff 	pop	{r0, r1, r2, r3, r4, r5, r6, r7, r8, r9, sl, fp, ip, lr}
    93cc:	e1b0f00e 	movs	pc, lr

000093d0 <prefetch_handler_full>:
    93d0:	e3a0d409 	mov	sp, #150994944	; 0x9000000
    93d4:	e24ee004 	sub	lr, lr, #4, 0
    93d8:	e8cd7fff 	stmia	sp, {r0, r1, r2, r3, r4, r5, r6, r7, r8, r9, sl, fp, ip, sp, lr}^
    93dc:	e58de03c 	str	lr, [sp, #60]	; 0x3c
    93e0:	e14fc000 	mrs	ip, SPSR
    93e4:	e58dc040 	str	ip, [sp, #64]	; 0x40
    93e8:	e1a0000d 	mov	r0, sp
    93ec:	e14f1000 	mrs	r1, SPSR
    93f0:	e1a0200e 	mov	r2, lr
    93f4:	ebfffe33 	bl	8cc8 <prefetch_abort_full_except>
    93f8:	e3a0d409 	mov	sp, #150994944	; 0x9000000
    93fc:	e24f0004 	sub	r0, pc, #4, 0
    9400:	e28f1000 	add	r1, pc, #0, 0
    9404:	ea0004dc 	b	a77c <asm_not_reached_helper>
    9408:	6c6c7566 	.word	0x6c6c7566
    940c:	6378652d 	.word	0x6378652d
    9410:	2d747065 	.word	0x2d747065
    9414:	2e6d7361 	.word	0x2e6d7361
    9418:	30313a53 	.word	0x30313a53
    941c:	4e3c3a30 	.word	0x4e3c3a30
    9420:	5220544f 	.word	0x5220544f
    9424:	48434145 	.word	0x48434145
    9428:	003e4445 	.word	0x003e4445

0000942c <data_abort_full>:
    942c:	e3a0d409 	mov	sp, #150994944	; 0x9000000
    9430:	e24ee008 	sub	lr, lr, #8, 0
    9434:	e8cd7fff 	stmia	sp, {r0, r1, r2, r3, r4, r5, r6, r7, r8, r9, sl, fp, ip, sp, lr}^
    9438:	e58de03c 	str	lr, [sp, #60]	; 0x3c
    943c:	e14fc000 	mrs	ip, SPSR
    9440:	e58dc040 	str	ip, [sp, #64]	; 0x40
    9444:	e1a0000d 	mov	r0, sp
    9448:	e14f1000 	mrs	r1, SPSR
    944c:	e1a0200e 	mov	r2, lr
    9450:	ebfffe56 	bl	8db0 <data_abort_full_except>
    9454:	e3a0d409 	mov	sp, #150994944	; 0x9000000
    9458:	e24f0004 	sub	r0, pc, #4, 0
    945c:	e28f1000 	add	r1, pc, #0, 0
    9460:	ea0004c5 	b	a77c <asm_not_reached_helper>
    9464:	6c6c7566 	.word	0x6c6c7566
    9468:	6378652d 	.word	0x6378652d
    946c:	2d747065 	.word	0x2d747065
    9470:	2e6d7361 	.word	0x2e6d7361
    9474:	32313a53 	.word	0x32313a53
    9478:	4e3c3a33 	.word	0x4e3c3a33
    947c:	5220544f 	.word	0x5220544f
    9480:	48434145 	.word	0x48434145
    9484:	003e4445 	.word	0x003e4445

00009488 <syscall_full>:
    9488:	e3a0d409 	mov	sp, #150994944	; 0x9000000
    948c:	e8cd7fff 	stmia	sp, {r0, r1, r2, r3, r4, r5, r6, r7, r8, r9, sl, fp, ip, sp, lr}^
    9490:	e58de03c 	str	lr, [sp, #60]	; 0x3c
    9494:	e14fc000 	mrs	ip, SPSR
    9498:	e58dc040 	str	ip, [sp, #64]	; 0x40
    949c:	e1a0000d 	mov	r0, sp
    94a0:	e14f1000 	mrs	r1, SPSR
    94a4:	e1a0200e 	mov	r2, lr
    94a8:	ebfffe7a 	bl	8e98 <syscall_full_except>
    94ac:	e3a0d409 	mov	sp, #150994944	; 0x9000000
    94b0:	e24f0004 	sub	r0, pc, #4, 0
    94b4:	e28f1000 	add	r1, pc, #0, 0
    94b8:	ea0004af 	b	a77c <asm_not_reached_helper>
    94bc:	6c6c7566 	.word	0x6c6c7566
    94c0:	6378652d 	.word	0x6378652d
    94c4:	2d747065 	.word	0x2d747065
    94c8:	2e6d7361 	.word	0x2e6d7361
    94cc:	34313a53 	.word	0x34313a53
    94d0:	4e3c3a35 	.word	0x4e3c3a35
    94d4:	5220544f 	.word	0x5220544f
    94d8:	48434145 	.word	0x48434145
    94dc:	003e4445 	.word	0x003e4445

000094e0 <full_except_ints>:
    94e0:	eaffff9e 	b	9360 <reset>
    94e4:	eaffffa4 	b	937c <undef>
    94e8:	eaffffe6 	b	9488 <syscall_full>
    94ec:	eaffffb7 	b	93d0 <prefetch_handler_full>
    94f0:	eaffffcd 	b	942c <data_abort_full>
    94f4:	eaffff99 	b	9360 <reset>
    94f8:	eaffffad 	b	93b4 <interrupt>
    94fc:	eaffffff 	b	9500 <bad_exception>

00009500 <bad_exception>:
    9500:	e3a0d409 	mov	sp, #150994944	; 0x9000000
    9504:	e24f0004 	sub	r0, pc, #4, 0
    9508:	e28f1000 	add	r1, pc, #0, 0
    950c:	ea0004bb 	b	a800 <asm_bad_exception_helper>
    9510:	6c6c7566 	.word	0x6c6c7566
    9514:	6378652d 	.word	0x6378652d
    9518:	2d747065 	.word	0x2d747065
    951c:	2e6d7361 	.word	0x2e6d7361
    9520:	36313a53 	.word	0x36313a53
    9524:	223c3a37 	.word	0x223c3a37
    9528:	756f6873 	.word	0x756f6873
    952c:	6e20646c 	.word	0x6e20646c
    9530:	7220746f 	.word	0x7220746f
    9534:	68636165 	.word	0x68636165
    9538:	72656820 	.word	0x72656820
    953c:	003e2265 	.word	0x003e2265

00009540 <syscall_trampoline>:
    9540:	e52de004 	push	{lr}		; (str lr, [sp, #-4]!)
    9544:	ef000001 	svc	0x00000001
    9548:	e49de004 	pop	{lr}		; (ldr lr, [sp], #4)
    954c:	e12fff1e 	bx	lr

00009550 <check_sp>:
    9550:	e52de004 	push	{lr}		; (str lr, [sp, #-4]!)
    9554:	e24dd00c 	sub	sp, sp, #12, 0
    9558:	e5903034 	ldr	r3, [r0, #52]	; 0x34
    955c:	e590205c 	ldr	r2, [r0, #92]	; 0x5c
    9560:	e1520003 	cmp	r2, r3
    9564:	8a000004 	bhi	957c <check_sp+0x2c>
    9568:	e5902060 	ldr	r2, [r0, #96]	; 0x60
    956c:	e1520003 	cmp	r2, r3
    9570:	3a000009 	bcc	959c <check_sp+0x4c>
    9574:	e28dd00c 	add	sp, sp, #12, 0
    9578:	e49df004 	pop	{pc}		; (ldr pc, [sp], #4)
    957c:	e58d2004 	str	r2, [sp, #4]
    9580:	e58d3000 	str	r3, [sp]
    9584:	e3a03053 	mov	r3, #83, 0	; 0x53
    9588:	e59f202c 	ldr	r2, [pc, #44]	; 95bc <check_sp+0x6c>
    958c:	e59f102c 	ldr	r1, [pc, #44]	; 95c0 <check_sp+0x70>
    9590:	e59f002c 	ldr	r0, [pc, #44]	; 95c4 <check_sp+0x74>
    9594:	eb00036f 	bl	a358 <printk>
    9598:	eb00049e 	bl	a818 <clean_reboot>
    959c:	e58d2004 	str	r2, [sp, #4]
    95a0:	e58d3000 	str	r3, [sp]
    95a4:	e3a03056 	mov	r3, #86, 0	; 0x56
    95a8:	e59f200c 	ldr	r2, [pc, #12]	; 95bc <check_sp+0x6c>
    95ac:	e59f100c 	ldr	r1, [pc, #12]	; 95c0 <check_sp+0x70>
    95b0:	e59f0010 	ldr	r0, [pc, #16]	; 95c8 <check_sp+0x78>
    95b4:	eb000367 	bl	a358 <printk>
    95b8:	eb000496 	bl	a818 <clean_reboot>
    95bc:	0000ba00 	.word	0x0000ba00
    95c0:	0000b75c 	.word	0x0000b75c
    95c4:	0000b76c 	.word	0x0000b76c
    95c8:	0000b7a8 	.word	0x0000b7a8

000095cc <eq_pop>:
    95cc:	e52de004 	push	{lr}		; (str lr, [sp, #-4]!)
    95d0:	e24dd00c 	sub	sp, sp, #12, 0
    95d4:	e2503000 	subs	r3, r0, #0, 0
    95d8:	0a000008 	beq	9600 <eq_pop+0x34>
    95dc:	e5930000 	ldr	r0, [r3]
    95e0:	e3500000 	cmp	r0, #0, 0
    95e4:	0a00000d 	beq	9620 <eq_pop+0x54>
    95e8:	e5902044 	ldr	r2, [r0, #68]	; 0x44
    95ec:	e5832000 	str	r2, [r3]
    95f0:	e3520000 	cmp	r2, #0, 0
    95f4:	0a000021 	beq	9680 <eq_pop+0xb4>
    95f8:	e28dd00c 	add	sp, sp, #12, 0
    95fc:	e49df004 	pop	{pc}		; (ldr pc, [sp], #4)
    9600:	e59f3080 	ldr	r3, [pc, #128]	; 9688 <eq_pop+0xbc>
    9604:	e58d3000 	str	r3, [sp]
    9608:	e3a03010 	mov	r3, #16, 0
    960c:	e59f2078 	ldr	r2, [pc, #120]	; 968c <eq_pop+0xc0>
    9610:	e59f1078 	ldr	r1, [pc, #120]	; 9690 <eq_pop+0xc4>
    9614:	e59f0078 	ldr	r0, [pc, #120]	; 9694 <eq_pop+0xc8>
    9618:	eb00034e 	bl	a358 <printk>
    961c:	eb00047d 	bl	a818 <clean_reboot>
    9620:	0a00000a 	beq	9650 <eq_pop+0x84>
    9624:	e3a03000 	mov	r3, #0, 0
    9628:	e3530000 	cmp	r3, #0, 0
    962c:	1afffff1 	bne	95f8 <eq_pop+0x2c>
    9630:	e59f3060 	ldr	r3, [pc, #96]	; 9698 <eq_pop+0xcc>
    9634:	e58d3000 	str	r3, [sp]
    9638:	e3a03010 	mov	r3, #16, 0
    963c:	e59f2048 	ldr	r2, [pc, #72]	; 968c <eq_pop+0xc0>
    9640:	e59f1048 	ldr	r1, [pc, #72]	; 9690 <eq_pop+0xc4>
    9644:	e59f0050 	ldr	r0, [pc, #80]	; 969c <eq_pop+0xd0>
    9648:	eb000342 	bl	a358 <printk>
    964c:	eb000471 	bl	a818 <clean_reboot>
    9650:	e5933004 	ldr	r3, [r3, #4]
    9654:	e3530000 	cmp	r3, #0, 0
    9658:	03a03001 	moveq	r3, #1, 0
    965c:	0afffff1 	beq	9628 <eq_pop+0x5c>
    9660:	e59f3038 	ldr	r3, [pc, #56]	; 96a0 <eq_pop+0xd4>
    9664:	e58d3000 	str	r3, [sp]
    9668:	e3a03010 	mov	r3, #16, 0
    966c:	e59f2030 	ldr	r2, [pc, #48]	; 96a4 <eq_pop+0xd8>
    9670:	e59f1018 	ldr	r1, [pc, #24]	; 9690 <eq_pop+0xc4>
    9674:	e59f002c 	ldr	r0, [pc, #44]	; 96a8 <eq_pop+0xdc>
    9678:	eb000336 	bl	a358 <printk>
    967c:	eb000465 	bl	a818 <clean_reboot>
    9680:	e5832004 	str	r2, [r3, #4]
    9684:	eaffffdb 	b	95f8 <eq_pop+0x2c>
    9688:	0000b818 	.word	0x0000b818
    968c:	0000ba0c 	.word	0x0000ba0c
    9690:	0000b75c 	.word	0x0000b75c
    9694:	0000b7e4 	.word	0x0000b7e4
    9698:	0000b85c 	.word	0x0000b85c
    969c:	0000b20c 	.word	0x0000b20c
    96a0:	0000b850 	.word	0x0000b850
    96a4:	0000ba14 	.word	0x0000ba14
    96a8:	0000b81c 	.word	0x0000b81c

000096ac <equiv_schedule>:
    96ac:	e52de004 	push	{lr}		; (str lr, [sp, #-4]!)
    96b0:	e24dd00c 	sub	sp, sp, #12, 0
    96b4:	e59f30c8 	ldr	r3, [pc, #200]	; 9784 <equiv_schedule+0xd8>
    96b8:	e5933000 	ldr	r3, [r3]
    96bc:	e3530000 	cmp	r3, #0, 0
    96c0:	0a000016 	beq	9720 <equiv_schedule+0x74>
    96c4:	e59f00bc 	ldr	r0, [pc, #188]	; 9788 <equiv_schedule+0xdc>
    96c8:	ebffffbf 	bl	95cc <eq_pop>
    96cc:	e2504000 	subs	r4, r0, #0, 0
    96d0:	0a00000e 	beq	9710 <equiv_schedule+0x64>
    96d4:	e594306c 	ldr	r3, [r4, #108]	; 0x6c
    96d8:	e3530000 	cmp	r3, #0, 0
    96dc:	1a000017 	bne	9740 <equiv_schedule+0x94>
    96e0:	e59f209c 	ldr	r2, [pc, #156]	; 9784 <equiv_schedule+0xd8>
    96e4:	e5923000 	ldr	r3, [r2]
    96e8:	e3a01000 	mov	r1, #0, 0
    96ec:	e5831044 	str	r1, [r3, #68]	; 0x44
    96f0:	e5922008 	ldr	r2, [r2, #8]
    96f4:	e1520001 	cmp	r2, r1
    96f8:	0a00001d 	beq	9774 <equiv_schedule+0xc8>
    96fc:	e5823044 	str	r3, [r2, #68]	; 0x44
    9700:	e59f207c 	ldr	r2, [pc, #124]	; 9784 <equiv_schedule+0xd8>
    9704:	e5823008 	str	r3, [r2, #8]
    9708:	e59f3074 	ldr	r3, [pc, #116]	; 9784 <equiv_schedule+0xd8>
    970c:	e5834000 	str	r4, [r3]
    9710:	eb00027c 	bl	a108 <uart_flush_tx>
    9714:	e59f3068 	ldr	r3, [pc, #104]	; 9784 <equiv_schedule+0xd8>
    9718:	e5930000 	ldr	r0, [r3]
    971c:	ebfffd3f 	bl	8c20 <mismatch_run>
    9720:	e59f3064 	ldr	r3, [pc, #100]	; 978c <equiv_schedule+0xe0>
    9724:	e58d3000 	str	r3, [sp]
    9728:	e3a03030 	mov	r3, #48, 0	; 0x30
    972c:	e59f205c 	ldr	r2, [pc, #92]	; 9790 <equiv_schedule+0xe4>
    9730:	e59f105c 	ldr	r1, [pc, #92]	; 9794 <equiv_schedule+0xe8>
    9734:	e59f005c 	ldr	r0, [pc, #92]	; 9798 <equiv_schedule+0xec>
    9738:	eb000306 	bl	a358 <printk>
    973c:	eb000435 	bl	a818 <clean_reboot>
    9740:	e59f303c 	ldr	r3, [pc, #60]	; 9784 <equiv_schedule+0xd8>
    9744:	e5931000 	ldr	r1, [r3]
    9748:	e5932000 	ldr	r2, [r3]
    974c:	e5943034 	ldr	r3, [r4, #52]	; 0x34
    9750:	e58d3004 	str	r3, [sp, #4]
    9754:	e594303c 	ldr	r3, [r4, #60]	; 0x3c
    9758:	e58d3000 	str	r3, [sp]
    975c:	e5943050 	ldr	r3, [r4, #80]	; 0x50
    9760:	e592203c 	ldr	r2, [r2, #60]	; 0x3c
    9764:	e5911050 	ldr	r1, [r1, #80]	; 0x50
    9768:	e59f002c 	ldr	r0, [pc, #44]	; 979c <equiv_schedule+0xf0>
    976c:	eb0002f9 	bl	a358 <printk>
    9770:	eaffffda 	b	96e0 <equiv_schedule+0x34>
    9774:	e59f2008 	ldr	r2, [pc, #8]	; 9784 <equiv_schedule+0xd8>
    9778:	e5823008 	str	r3, [r2, #8]
    977c:	e5823004 	str	r3, [r2, #4]
    9780:	eaffffe0 	b	9708 <equiv_schedule+0x5c>
    9784:	0000c144 	.word	0x0000c144
    9788:	0000c148 	.word	0x0000c148
    978c:	0000b868 	.word	0x0000b868
    9790:	0000ba20 	.word	0x0000ba20
    9794:	0000b75c 	.word	0x0000b75c
    9798:	0000b20c 	.word	0x0000b20c
    979c:	0000b874 	.word	0x0000b874

000097a0 <equiv_hash_handler>:
    97a0:	e92d4010 	push	{r4, lr}
    97a4:	e24dd010 	sub	sp, sp, #16, 0
    97a8:	e59f3114 	ldr	r3, [pc, #276]	; 98c4 <equiv_hash_handler+0x124>
    97ac:	e5933000 	ldr	r3, [r3]
    97b0:	e58d300c 	str	r3, [sp, #12]
    97b4:	e59d300c 	ldr	r3, [sp, #12]
    97b8:	e3530000 	cmp	r3, #0, 0
    97bc:	0a000020 	beq	9844 <equiv_hash_handler+0xa4>
    97c0:	e1a04001 	mov	r4, r1
    97c4:	e59d000c 	ldr	r0, [sp, #12]
    97c8:	e3a02044 	mov	r2, #68, 0	; 0x44
    97cc:	e5911004 	ldr	r1, [r1, #4]
    97d0:	eb00028d 	bl	a20c <memcpy>
    97d4:	e59d200c 	ldr	r2, [sp, #12]
    97d8:	e5923068 	ldr	r3, [r2, #104]	; 0x68
    97dc:	e2833001 	add	r3, r3, #1, 0
    97e0:	e5823068 	str	r3, [r2, #104]	; 0x68
    97e4:	e5943004 	ldr	r3, [r4, #4]
    97e8:	e593303c 	ldr	r3, [r3, #60]	; 0x3c
    97ec:	e59d100c 	ldr	r1, [sp, #12]
    97f0:	e59d200c 	ldr	r2, [sp, #12]
    97f4:	e592204c 	ldr	r2, [r2, #76]	; 0x4c
    97f8:	e59d000c 	ldr	r0, [sp, #12]
    97fc:	e3510000 	cmp	r1, #0, 0
    9800:	0a000023 	beq	9894 <equiv_hash_handler+0xf4>
    9804:	e3a0e011 	mov	lr, #17, 0
    9808:	e35e0000 	cmp	lr, #0, 0
    980c:	0a000014 	beq	9864 <equiv_hash_handler+0xc4>
    9810:	e5d14001 	ldrb	r4, [r1, #1]
    9814:	e5d1c000 	ldrb	ip, [r1]
    9818:	e18cc404 	orr	ip, ip, r4, lsl #8
    981c:	e08cc002 	add	ip, ip, r2
    9820:	e5d14003 	ldrb	r4, [r1, #3]
    9824:	e5d12002 	ldrb	r2, [r1, #2]
    9828:	e1822404 	orr	r2, r2, r4, lsl #8
    982c:	e02c2582 	eor	r2, ip, r2, lsl #11
    9830:	e022280c 	eor	r2, r2, ip, lsl #16
    9834:	e2811004 	add	r1, r1, #4, 0
    9838:	e08225a2 	add	r2, r2, r2, lsr #11
    983c:	e24ee001 	sub	lr, lr, #1, 0
    9840:	eafffff0 	b	9808 <equiv_hash_handler+0x68>
    9844:	e59f307c 	ldr	r3, [pc, #124]	; 98c8 <equiv_hash_handler+0x128>
    9848:	e58d3000 	str	r3, [sp]
    984c:	e3a030cc 	mov	r3, #204, 0	; 0xcc
    9850:	e59f2074 	ldr	r2, [pc, #116]	; 98cc <equiv_hash_handler+0x12c>
    9854:	e59f1074 	ldr	r1, [pc, #116]	; 98d0 <equiv_hash_handler+0x130>
    9858:	e59f0074 	ldr	r0, [pc, #116]	; 98d4 <equiv_hash_handler+0x134>
    985c:	eb0002bd 	bl	a358 <printk>
    9860:	eb0003ec 	bl	a818 <clean_reboot>
    9864:	e0222182 	eor	r2, r2, r2, lsl #3
    9868:	e08222a2 	add	r2, r2, r2, lsr #5
    986c:	e0222202 	eor	r2, r2, r2, lsl #4
    9870:	e08228a2 	add	r2, r2, r2, lsr #17
    9874:	e0222c82 	eor	r2, r2, r2, lsl #25
    9878:	e0822322 	add	r2, r2, r2, lsr #6
    987c:	e580204c 	str	r2, [r0, #76]	; 0x4c
    9880:	e59d200c 	ldr	r2, [sp, #12]
    9884:	e592206c 	ldr	r2, [r2, #108]	; 0x6c
    9888:	e3520000 	cmp	r2, #0, 0
    988c:	1a000002 	bne	989c <equiv_hash_handler+0xfc>
    9890:	ebffff85 	bl	96ac <equiv_schedule>
    9894:	e3a02000 	mov	r2, #0, 0
    9898:	eafffff7 	b	987c <equiv_hash_handler+0xdc>
    989c:	e59d100c 	ldr	r1, [sp, #12]
    98a0:	e59d200c 	ldr	r2, [sp, #12]
    98a4:	e59d000c 	ldr	r0, [sp, #12]
    98a8:	e590004c 	ldr	r0, [r0, #76]	; 0x4c
    98ac:	e58d0000 	str	r0, [sp]
    98b0:	e5922068 	ldr	r2, [r2, #104]	; 0x68
    98b4:	e5911050 	ldr	r1, [r1, #80]	; 0x50
    98b8:	e59f0018 	ldr	r0, [pc, #24]	; 98d8 <equiv_hash_handler+0x138>
    98bc:	eb0002a5 	bl	a358 <printk>
    98c0:	eafffff2 	b	9890 <equiv_hash_handler+0xf0>
    98c4:	0000c144 	.word	0x0000c144
    98c8:	0000b8a8 	.word	0x0000b8a8
    98cc:	0000ba30 	.word	0x0000ba30
    98d0:	0000b75c 	.word	0x0000b75c
    98d4:	0000b20c 	.word	0x0000b20c
    98d8:	0000b8ac 	.word	0x0000b8ac

000098dc <mode_get>:
    98dc:	e200001f 	and	r0, r0, #31, 0
    98e0:	e3500012 	cmp	r0, #18, 0
    98e4:	13500010 	cmpne	r0, #16, 0
    98e8:	012fff1e 	bxeq	lr
    98ec:	e3500017 	cmp	r0, #23, 0
    98f0:	13500013 	cmpne	r0, #19, 0
    98f4:	012fff1e 	bxeq	lr
    98f8:	e350001f 	cmp	r0, #31, 0
    98fc:	1350001b 	cmpne	r0, #27, 0
    9900:	012fff1e 	bxeq	lr
    9904:	e52de004 	push	{lr}		; (str lr, [sp, #-4]!)
    9908:	e24dd00c 	sub	sp, sp, #12, 0
    990c:	e58d0004 	str	r0, [sp, #4]
    9910:	e58d0000 	str	r0, [sp]
    9914:	e3a03013 	mov	r3, #19, 0
    9918:	e59f200c 	ldr	r2, [pc, #12]	; 992c <mode_get+0x50>
    991c:	e59f100c 	ldr	r1, [pc, #12]	; 9930 <mode_get+0x54>
    9920:	e59f000c 	ldr	r0, [pc, #12]	; 9934 <mode_get+0x58>
    9924:	eb00028b 	bl	a358 <printk>
    9928:	eb0003ba 	bl	a818 <clean_reboot>
    992c:	0000ba44 	.word	0x0000ba44
    9930:	0000b1c0 	.word	0x0000b1c0
    9934:	0000b1cc 	.word	0x0000b1cc

00009938 <equiv_syscall_handler>:
    9938:	e92d4030 	push	{r4, r5, lr}
    993c:	e24dd01c 	sub	sp, sp, #28, 0
    9940:	e59f31e0 	ldr	r3, [pc, #480]	; 9b28 <equiv_syscall_handler+0x1f0>
    9944:	e5933000 	ldr	r3, [r3]
    9948:	e58d3014 	str	r3, [sp, #20]
    994c:	e59d3014 	ldr	r3, [sp, #20]
    9950:	e3530000 	cmp	r3, #0, 0
    9954:	0a00000f 	beq	9998 <equiv_syscall_handler+0x60>
    9958:	e1a04000 	mov	r4, r0
    995c:	e59d0014 	ldr	r0, [sp, #20]
    9960:	e3a02044 	mov	r2, #68, 0	; 0x44
    9964:	e1a01004 	mov	r1, r4
    9968:	eb000227 	bl	a20c <memcpy>
    996c:	eb0001e5 	bl	a108 <uart_flush_tx>
    9970:	e59d0014 	ldr	r0, [sp, #20]
    9974:	ebfffef5 	bl	9550 <check_sp>
    9978:	e5943000 	ldr	r3, [r4]
    997c:	e3530000 	cmp	r3, #0, 0
    9980:	0a00000c 	beq	99b8 <equiv_syscall_handler+0x80>
    9984:	e3530001 	cmp	r3, #1, 0
    9988:	1a00005f 	bne	9b0c <equiv_syscall_handler+0x1d4>
    998c:	e5d40004 	ldrb	r0, [r4, #4]
    9990:	eb0001a8 	bl	a038 <uart_put8>
    9994:	ebffff44 	bl	96ac <equiv_schedule>
    9998:	e59f318c 	ldr	r3, [pc, #396]	; 9b2c <equiv_syscall_handler+0x1f4>
    999c:	e58d3000 	str	r3, [sp]
    99a0:	e3a0305e 	mov	r3, #94, 0	; 0x5e
    99a4:	e59f2184 	ldr	r2, [pc, #388]	; 9b30 <equiv_syscall_handler+0x1f8>
    99a8:	e59f1184 	ldr	r1, [pc, #388]	; 9b34 <equiv_syscall_handler+0x1fc>
    99ac:	e59f0184 	ldr	r0, [pc, #388]	; 9b38 <equiv_syscall_handler+0x200>
    99b0:	eb000268 	bl	a358 <printk>
    99b4:	eb000397 	bl	a818 <clean_reboot>
    99b8:	e59f317c 	ldr	r3, [pc, #380]	; 9b3c <equiv_syscall_handler+0x204>
    99bc:	e5933000 	ldr	r3, [r3]
    99c0:	e3530000 	cmp	r3, #0, 0
    99c4:	1a00000f 	bne	9a08 <equiv_syscall_handler+0xd0>
    99c8:	e59d3014 	ldr	r3, [sp, #20]
    99cc:	e5933048 	ldr	r3, [r3, #72]	; 0x48
    99d0:	e3530000 	cmp	r3, #0, 0
    99d4:	1a000016 	bne	9a34 <equiv_syscall_handler+0xfc>
    99d8:	e59d2014 	ldr	r2, [sp, #20]
    99dc:	e59d3014 	ldr	r3, [sp, #20]
    99e0:	e592204c 	ldr	r2, [r2, #76]	; 0x4c
    99e4:	e5832048 	str	r2, [r3, #72]	; 0x48
    99e8:	e59f0150 	ldr	r0, [pc, #336]	; 9b40 <equiv_syscall_handler+0x208>
    99ec:	ebfffef6 	bl	95cc <eq_pop>
    99f0:	e3500000 	cmp	r0, #0, 0
    99f4:	0a000031 	beq	9ac0 <equiv_syscall_handler+0x188>
    99f8:	e59f3128 	ldr	r3, [pc, #296]	; 9b28 <equiv_syscall_handler+0x1f0>
    99fc:	e5830000 	str	r0, [r3]
    9a00:	e5930000 	ldr	r0, [r3]
    9a04:	ebfffc85 	bl	8c20 <mismatch_run>
    9a08:	e59f1120 	ldr	r1, [pc, #288]	; 9b30 <equiv_syscall_handler+0x1f8>
    9a0c:	e59f0130 	ldr	r0, [pc, #304]	; 9b44 <equiv_syscall_handler+0x20c>
    9a10:	eb000250 	bl	a358 <printk>
    9a14:	e59d1014 	ldr	r1, [sp, #20]
    9a18:	e59d3014 	ldr	r3, [sp, #20]
    9a1c:	e593304c 	ldr	r3, [r3, #76]	; 0x4c
    9a20:	e5942004 	ldr	r2, [r4, #4]
    9a24:	e5911050 	ldr	r1, [r1, #80]	; 0x50
    9a28:	e59f0118 	ldr	r0, [pc, #280]	; 9b48 <equiv_syscall_handler+0x210>
    9a2c:	eb000249 	bl	a358 <printk>
    9a30:	eaffffe4 	b	99c8 <equiv_syscall_handler+0x90>
    9a34:	e59d3014 	ldr	r3, [sp, #20]
    9a38:	e5933048 	ldr	r3, [r3, #72]	; 0x48
    9a3c:	e3530000 	cmp	r3, #0, 0
    9a40:	0affffe8 	beq	99e8 <equiv_syscall_handler+0xb0>
    9a44:	e59d3014 	ldr	r3, [sp, #20]
    9a48:	e5934048 	ldr	r4, [r3, #72]	; 0x48
    9a4c:	e59d3014 	ldr	r3, [sp, #20]
    9a50:	e593504c 	ldr	r5, [r3, #76]	; 0x4c
    9a54:	e1540005 	cmp	r4, r5
    9a58:	1a00000d 	bne	9a94 <equiv_syscall_handler+0x15c>
    9a5c:	e59f30d8 	ldr	r3, [pc, #216]	; 9b3c <equiv_syscall_handler+0x204>
    9a60:	e5933000 	ldr	r3, [r3]
    9a64:	e3530000 	cmp	r3, #0, 0
    9a68:	0affffde 	beq	99e8 <equiv_syscall_handler+0xb0>
    9a6c:	e59f10bc 	ldr	r1, [pc, #188]	; 9b30 <equiv_syscall_handler+0x1f8>
    9a70:	e59f00cc 	ldr	r0, [pc, #204]	; 9b44 <equiv_syscall_handler+0x20c>
    9a74:	eb000237 	bl	a358 <printk>
    9a78:	e59d1014 	ldr	r1, [sp, #20]
    9a7c:	e1a03005 	mov	r3, r5
    9a80:	e1a02004 	mov	r2, r4
    9a84:	e5911050 	ldr	r1, [r1, #80]	; 0x50
    9a88:	e59f00bc 	ldr	r0, [pc, #188]	; 9b4c <equiv_syscall_handler+0x214>
    9a8c:	eb000231 	bl	a358 <printk>
    9a90:	eaffffd4 	b	99e8 <equiv_syscall_handler+0xb0>
    9a94:	e59d3014 	ldr	r3, [sp, #20]
    9a98:	e58d5008 	str	r5, [sp, #8]
    9a9c:	e58d4004 	str	r4, [sp, #4]
    9aa0:	e5933050 	ldr	r3, [r3, #80]	; 0x50
    9aa4:	e58d3000 	str	r3, [sp]
    9aa8:	e3a03077 	mov	r3, #119, 0	; 0x77
    9aac:	e59f207c 	ldr	r2, [pc, #124]	; 9b30 <equiv_syscall_handler+0x1f8>
    9ab0:	e59f107c 	ldr	r1, [pc, #124]	; 9b34 <equiv_syscall_handler+0x1fc>
    9ab4:	e59f0094 	ldr	r0, [pc, #148]	; 9b50 <equiv_syscall_handler+0x218>
    9ab8:	eb000226 	bl	a358 <printk>
    9abc:	eb000355 	bl	a818 <clean_reboot>
    9ac0:	e59f3074 	ldr	r3, [pc, #116]	; 9b3c <equiv_syscall_handler+0x204>
    9ac4:	e5933000 	ldr	r3, [r3]
    9ac8:	e3530000 	cmp	r3, #0, 0
    9acc:	1a000006 	bne	9aec <equiv_syscall_handler+0x1b4>
    9ad0:	e59f3050 	ldr	r3, [pc, #80]	; 9b28 <equiv_syscall_handler+0x1f0>
    9ad4:	e593004c 	ldr	r0, [r3, #76]	; 0x4c
    9ad8:	ebffff7f 	bl	98dc <mode_get>
    9adc:	e3500010 	cmp	r0, #16, 0
    9ae0:	0a000007 	beq	9b04 <equiv_syscall_handler+0x1cc>
    9ae4:	e59f0068 	ldr	r0, [pc, #104]	; 9b54 <equiv_syscall_handler+0x21c>
    9ae8:	ebfffdd6 	bl	9248 <switchto_priv_asm>
    9aec:	e59f103c 	ldr	r1, [pc, #60]	; 9b30 <equiv_syscall_handler+0x1f8>
    9af0:	e59f004c 	ldr	r0, [pc, #76]	; 9b44 <equiv_syscall_handler+0x20c>
    9af4:	eb000217 	bl	a358 <printk>
    9af8:	e59f0058 	ldr	r0, [pc, #88]	; 9b58 <equiv_syscall_handler+0x220>
    9afc:	eb000215 	bl	a358 <printk>
    9b00:	eafffff2 	b	9ad0 <equiv_syscall_handler+0x198>
    9b04:	e59f0048 	ldr	r0, [pc, #72]	; 9b54 <equiv_syscall_handler+0x21c>
    9b08:	ebfffdbd 	bl	9204 <switchto_user_asm>
    9b0c:	e58d3000 	str	r3, [sp]
    9b10:	e3a0308a 	mov	r3, #138, 0	; 0x8a
    9b14:	e59f2014 	ldr	r2, [pc, #20]	; 9b30 <equiv_syscall_handler+0x1f8>
    9b18:	e59f1014 	ldr	r1, [pc, #20]	; 9b34 <equiv_syscall_handler+0x1fc>
    9b1c:	e59f0038 	ldr	r0, [pc, #56]	; 9b5c <equiv_syscall_handler+0x224>
    9b20:	eb00020c 	bl	a358 <printk>
    9b24:	eb00033b 	bl	a818 <clean_reboot>
    9b28:	0000c144 	.word	0x0000c144
    9b2c:	0000b8a8 	.word	0x0000b8a8
    9b30:	0000ba50 	.word	0x0000ba50
    9b34:	0000b75c 	.word	0x0000b75c
    9b38:	0000b20c 	.word	0x0000b20c
    9b3c:	0000c0c0 	.word	0x0000c0c0
    9b40:	0000c148 	.word	0x0000c148
    9b44:	0000b8d4 	.word	0x0000b8d4
    9b48:	0000b8e0 	.word	0x0000b8e0
    9b4c:	0000b908 	.word	0x0000b908
    9b50:	0000b92c 	.word	0x0000b92c
    9b54:	0000c150 	.word	0x0000c150
    9b58:	0000b970 	.word	0x0000b970
    9b5c:	0000b988 	.word	0x0000b988

00009b60 <equiv_verbose_on>:
    9b60:	e59f3008 	ldr	r3, [pc, #8]	; 9b70 <equiv_verbose_on+0x10>
    9b64:	e3a02001 	mov	r2, #1, 0
    9b68:	e5832000 	str	r2, [r3]
    9b6c:	e12fff1e 	bx	lr
    9b70:	0000c0c0 	.word	0x0000c0c0

00009b74 <equiv_verbose_off>:
    9b74:	e59f3008 	ldr	r3, [pc, #8]	; 9b84 <equiv_verbose_off+0x10>
    9b78:	e3a02000 	mov	r2, #0, 0
    9b7c:	e5832000 	str	r2, [r3]
    9b80:	e12fff1e 	bx	lr
    9b84:	0000c0c0 	.word	0x0000c0c0

00009b88 <equiv_fork>:
    9b88:	e92d40f0 	push	{r4, r5, r6, r7, lr}
    9b8c:	e24dd094 	sub	sp, sp, #148, 0	; 0x94
    9b90:	e1a06000 	mov	r6, r0
    9b94:	e1a07001 	mov	r7, r1
    9b98:	e1a05002 	mov	r5, r2
    9b9c:	e3a01008 	mov	r1, #8, 0
    9ba0:	e3a00801 	mov	r0, #65536	; 0x10000
    9ba4:	eb0004b9 	bl	ae90 <kmalloc_aligned>
    9ba8:	e3100007 	tst	r0, #7, 0
    9bac:	1a000031 	bne	9c78 <equiv_fork+0xf0>
    9bb0:	e1a04000 	mov	r4, r0
    9bb4:	e5805048 	str	r5, [r0, #72]	; 0x48
    9bb8:	e59f20e4 	ldr	r2, [pc, #228]	; 9ca4 <equiv_fork+0x11c>
    9bbc:	e5923004 	ldr	r3, [r2, #4]
    9bc0:	e2831001 	add	r1, r3, #1, 0
    9bc4:	e5821004 	str	r1, [r2, #4]
    9bc8:	e5803050 	str	r3, [r0, #80]	; 0x50
    9bcc:	e5806054 	str	r6, [r0, #84]	; 0x54
    9bd0:	e5807058 	str	r7, [r0, #88]	; 0x58
    9bd4:	e580005c 	str	r0, [r0, #92]	; 0x5c
    9bd8:	e2803801 	add	r3, r0, #65536	; 0x10000
    9bdc:	e5803060 	str	r3, [r0, #96]	; 0x60
    9be0:	e10f3000 	mrs	r3, CPSR
    9be4:	e3c3320f 	bic	r3, r3, #-268435456	; 0xf0000000
    9be8:	e3c3301f 	bic	r3, r3, #31, 0
    9bec:	e3835010 	orr	r5, r3, #16, 0
    9bf0:	e3a02030 	mov	r2, #48, 0	; 0x30
    9bf4:	e3a01000 	mov	r1, #0, 0
    9bf8:	e28d000c 	add	r0, sp, #12, 0
    9bfc:	eb0001ad 	bl	a2b8 <memset>
    9c00:	e5943058 	ldr	r3, [r4, #88]	; 0x58
    9c04:	e58d3008 	str	r3, [sp, #8]
    9c08:	e5943060 	ldr	r3, [r4, #96]	; 0x60
    9c0c:	e58d303c 	str	r3, [sp, #60]	; 0x3c
    9c10:	e59f3090 	ldr	r3, [pc, #144]	; 9ca8 <equiv_fork+0x120>
    9c14:	e58d3040 	str	r3, [sp, #64]	; 0x40
    9c18:	e5943054 	ldr	r3, [r4, #84]	; 0x54
    9c1c:	e58d3044 	str	r3, [sp, #68]	; 0x44
    9c20:	e58d5048 	str	r5, [sp, #72]	; 0x48
    9c24:	e3a05044 	mov	r5, #68, 0	; 0x44
    9c28:	e1a02005 	mov	r2, r5
    9c2c:	e28d1008 	add	r1, sp, #8, 0
    9c30:	e28d004c 	add	r0, sp, #76, 0	; 0x4c
    9c34:	eb000174 	bl	a20c <memcpy>
    9c38:	e1a02005 	mov	r2, r5
    9c3c:	e28d104c 	add	r1, sp, #76, 0	; 0x4c
    9c40:	e1a00004 	mov	r0, r4
    9c44:	eb000170 	bl	a20c <memcpy>
    9c48:	e1a00004 	mov	r0, r4
    9c4c:	ebfffe3f 	bl	9550 <check_sp>
    9c50:	e59f3054 	ldr	r3, [pc, #84]	; 9cac <equiv_fork+0x124>
    9c54:	e5932004 	ldr	r2, [r3, #4]
    9c58:	e5842044 	str	r2, [r4, #68]	; 0x44
    9c5c:	e5834004 	str	r4, [r3, #4]
    9c60:	e5933008 	ldr	r3, [r3, #8]
    9c64:	e3530000 	cmp	r3, #0, 0
    9c68:	0a00000a 	beq	9c98 <equiv_fork+0x110>
    9c6c:	e1a00004 	mov	r0, r4
    9c70:	e28dd094 	add	sp, sp, #148, 0	; 0x94
    9c74:	e8bd80f0 	pop	{r4, r5, r6, r7, pc}
    9c78:	e59f3030 	ldr	r3, [pc, #48]	; 9cb0 <equiv_fork+0x128>
    9c7c:	e58d3000 	str	r3, [sp]
    9c80:	e3a030a4 	mov	r3, #164, 0	; 0xa4
    9c84:	e59f2028 	ldr	r2, [pc, #40]	; 9cb4 <equiv_fork+0x12c>
    9c88:	e59f1028 	ldr	r1, [pc, #40]	; 9cb8 <equiv_fork+0x130>
    9c8c:	e59f0028 	ldr	r0, [pc, #40]	; 9cbc <equiv_fork+0x134>
    9c90:	eb0001b0 	bl	a358 <printk>
    9c94:	eb0002df 	bl	a818 <clean_reboot>
    9c98:	e59f300c 	ldr	r3, [pc, #12]	; 9cac <equiv_fork+0x124>
    9c9c:	e5834008 	str	r4, [r3, #8]
    9ca0:	eafffff1 	b	9c6c <equiv_fork+0xe4>
    9ca4:	0000c0c0 	.word	0x0000c0c0
    9ca8:	00008120 	.word	0x00008120
    9cac:	0000c144 	.word	0x0000c144
    9cb0:	0000b9b4 	.word	0x0000b9b4
    9cb4:	0000ba68 	.word	0x0000ba68
    9cb8:	0000b75c 	.word	0x0000b75c
    9cbc:	0000b20c 	.word	0x0000b20c

00009cc0 <equiv_fork_nostack>:
    9cc0:	e92d4010 	push	{r4, lr}
    9cc4:	ebffffaf 	bl	9b88 <equiv_fork>
    9cc8:	e3a02000 	mov	r2, #0, 0
    9ccc:	e5802034 	str	r2, [r0, #52]	; 0x34
    9cd0:	e5802060 	str	r2, [r0, #96]	; 0x60
    9cd4:	e580205c 	str	r2, [r0, #92]	; 0x5c
    9cd8:	e8bd8010 	pop	{r4, pc}

00009cdc <equiv_refresh>:
    9cdc:	e92d4030 	push	{r4, r5, lr}
    9ce0:	e24dd08c 	sub	sp, sp, #140, 0	; 0x8c
    9ce4:	e1a04000 	mov	r4, r0
    9ce8:	e10f3000 	mrs	r3, CPSR
    9cec:	e3c3320f 	bic	r3, r3, #-268435456	; 0xf0000000
    9cf0:	e3c3301f 	bic	r3, r3, #31, 0
    9cf4:	e3835010 	orr	r5, r3, #16, 0
    9cf8:	e3a02030 	mov	r2, #48, 0	; 0x30
    9cfc:	e3a01000 	mov	r1, #0, 0
    9d00:	e28d0004 	add	r0, sp, #4, 0
    9d04:	eb00016b 	bl	a2b8 <memset>
    9d08:	e5943058 	ldr	r3, [r4, #88]	; 0x58
    9d0c:	e58d3000 	str	r3, [sp]
    9d10:	e5943060 	ldr	r3, [r4, #96]	; 0x60
    9d14:	e58d3034 	str	r3, [sp, #52]	; 0x34
    9d18:	e59f3074 	ldr	r3, [pc, #116]	; 9d94 <equiv_refresh+0xb8>
    9d1c:	e58d3038 	str	r3, [sp, #56]	; 0x38
    9d20:	e5943054 	ldr	r3, [r4, #84]	; 0x54
    9d24:	e58d303c 	str	r3, [sp, #60]	; 0x3c
    9d28:	e58d5040 	str	r5, [sp, #64]	; 0x40
    9d2c:	e3a05044 	mov	r5, #68, 0	; 0x44
    9d30:	e1a02005 	mov	r2, r5
    9d34:	e1a0100d 	mov	r1, sp
    9d38:	e08d0005 	add	r0, sp, r5
    9d3c:	eb000132 	bl	a20c <memcpy>
    9d40:	e1a02005 	mov	r2, r5
    9d44:	e08d1005 	add	r1, sp, r5
    9d48:	e1a00004 	mov	r0, r4
    9d4c:	eb00012e 	bl	a20c <memcpy>
    9d50:	e1a00004 	mov	r0, r4
    9d54:	ebfffdfd 	bl	9550 <check_sp>
    9d58:	e3a03000 	mov	r3, #0, 0
    9d5c:	e5843068 	str	r3, [r4, #104]	; 0x68
    9d60:	e584304c 	str	r3, [r4, #76]	; 0x4c
    9d64:	e59f302c 	ldr	r3, [pc, #44]	; 9d98 <equiv_refresh+0xbc>
    9d68:	e5932004 	ldr	r2, [r3, #4]
    9d6c:	e5842044 	str	r2, [r4, #68]	; 0x44
    9d70:	e5834004 	str	r4, [r3, #4]
    9d74:	e5933008 	ldr	r3, [r3, #8]
    9d78:	e3530000 	cmp	r3, #0, 0
    9d7c:	0a000001 	beq	9d88 <equiv_refresh+0xac>
    9d80:	e28dd08c 	add	sp, sp, #140, 0	; 0x8c
    9d84:	e8bd8030 	pop	{r4, r5, pc}
    9d88:	e59f3008 	ldr	r3, [pc, #8]	; 9d98 <equiv_refresh+0xbc>
    9d8c:	e5834008 	str	r4, [r3, #8]
    9d90:	eafffffa 	b	9d80 <equiv_refresh+0xa4>
    9d94:	00008120 	.word	0x00008120
    9d98:	0000c144 	.word	0x0000c144

00009d9c <equiv_run>:
    9d9c:	e92d4010 	push	{r4, lr}
    9da0:	e24dd008 	sub	sp, sp, #8, 0
    9da4:	e59f31e4 	ldr	r3, [pc, #484]	; 9f90 <equiv_run+0x1f4>
    9da8:	e5933004 	ldr	r3, [r3, #4]
    9dac:	e3530000 	cmp	r3, #0, 0
    9db0:	0a000032 	beq	9e80 <equiv_run+0xe4>
    9db4:	e5932044 	ldr	r2, [r3, #68]	; 0x44
    9db8:	e59f11d0 	ldr	r1, [pc, #464]	; 9f90 <equiv_run+0x1f4>
    9dbc:	e5812004 	str	r2, [r1, #4]
    9dc0:	e3520000 	cmp	r2, #0, 0
    9dc4:	0a000046 	beq	9ee4 <equiv_run+0x148>
    9dc8:	e59f21c0 	ldr	r2, [pc, #448]	; 9f90 <equiv_run+0x1f4>
    9dcc:	e5823000 	str	r3, [r2]
    9dd0:	e5923000 	ldr	r3, [r2]
    9dd4:	e3530000 	cmp	r3, #0, 0
    9dd8:	0a000045 	beq	9ef4 <equiv_run+0x158>
    9ddc:	ebfffa7d 	bl	87d8 <mismatch_on>
    9de0:	e59f41a8 	ldr	r4, [pc, #424]	; 9f90 <equiv_run+0x1f4>
    9de4:	e5943000 	ldr	r3, [r4]
    9de8:	e593003c 	ldr	r0, [r3, #60]	; 0x3c
    9dec:	ebfffa1a 	bl	865c <mismatch_pc_set>
    9df0:	e5941000 	ldr	r1, [r4]
    9df4:	e10f3000 	mrs	r3, CPSR
    9df8:	e203301f 	and	r3, r3, #31, 0
    9dfc:	e3530012 	cmp	r3, #18, 0
    9e00:	13530010 	cmpne	r3, #16, 0
    9e04:	0a000005 	beq	9e20 <equiv_run+0x84>
    9e08:	e3530017 	cmp	r3, #23, 0
    9e0c:	13530013 	cmpne	r3, #19, 0
    9e10:	0a000002 	beq	9e20 <equiv_run+0x84>
    9e14:	e353001f 	cmp	r3, #31, 0
    9e18:	1353001b 	cmpne	r3, #27, 0
    9e1c:	1a00003a 	bne	9f0c <equiv_run+0x170>
    9e20:	e3530010 	cmp	r3, #16, 0
    9e24:	0a000040 	beq	9f2c <equiv_run+0x190>
    9e28:	e5913040 	ldr	r3, [r1, #64]	; 0x40
    9e2c:	e203301f 	and	r3, r3, #31, 0
    9e30:	e3530012 	cmp	r3, #18, 0
    9e34:	13530010 	cmpne	r3, #16, 0
    9e38:	0a000005 	beq	9e54 <equiv_run+0xb8>
    9e3c:	e3530017 	cmp	r3, #23, 0
    9e40:	13530013 	cmpne	r3, #19, 0
    9e44:	0a000002 	beq	9e54 <equiv_run+0xb8>
    9e48:	e353001f 	cmp	r3, #31, 0
    9e4c:	1353001b 	cmpne	r3, #27, 0
    9e50:	1a00003d 	bne	9f4c <equiv_run+0x1b0>
    9e54:	e3530010 	cmp	r3, #16, 0
    9e58:	0a000043 	beq	9f6c <equiv_run+0x1d0>
    9e5c:	e59f0130 	ldr	r0, [pc, #304]	; 9f94 <equiv_run+0x1f8>
    9e60:	ebfffd07 	bl	9284 <cswitchto_priv_asm>
    9e64:	ebfffa8c 	bl	889c <mismatch_off>
    9e68:	e59f3128 	ldr	r3, [pc, #296]	; 9f98 <equiv_run+0x1fc>
    9e6c:	e5933000 	ldr	r3, [r3]
    9e70:	e3530000 	cmp	r3, #0, 0
    9e74:	1a00003f 	bne	9f78 <equiv_run+0x1dc>
    9e78:	e28dd008 	add	sp, sp, #8, 0
    9e7c:	e8bd8010 	pop	{r4, pc}
    9e80:	0a00000a 	beq	9eb0 <equiv_run+0x114>
    9e84:	e3a02000 	mov	r2, #0, 0
    9e88:	e3520000 	cmp	r2, #0, 0
    9e8c:	1affffcd 	bne	9dc8 <equiv_run+0x2c>
    9e90:	e59f3104 	ldr	r3, [pc, #260]	; 9f9c <equiv_run+0x200>
    9e94:	e58d3000 	str	r3, [sp]
    9e98:	e3a03010 	mov	r3, #16, 0
    9e9c:	e59f20fc 	ldr	r2, [pc, #252]	; 9fa0 <equiv_run+0x204>
    9ea0:	e59f10fc 	ldr	r1, [pc, #252]	; 9fa4 <equiv_run+0x208>
    9ea4:	e59f00fc 	ldr	r0, [pc, #252]	; 9fa8 <equiv_run+0x20c>
    9ea8:	eb00012a 	bl	a358 <printk>
    9eac:	eb000259 	bl	a818 <clean_reboot>
    9eb0:	e59f20d8 	ldr	r2, [pc, #216]	; 9f90 <equiv_run+0x1f4>
    9eb4:	e5922008 	ldr	r2, [r2, #8]
    9eb8:	e3520000 	cmp	r2, #0, 0
    9ebc:	03a02001 	moveq	r2, #1, 0
    9ec0:	0afffff0 	beq	9e88 <equiv_run+0xec>
    9ec4:	e59f30e0 	ldr	r3, [pc, #224]	; 9fac <equiv_run+0x210>
    9ec8:	e58d3000 	str	r3, [sp]
    9ecc:	e3a03010 	mov	r3, #16, 0
    9ed0:	e59f20d8 	ldr	r2, [pc, #216]	; 9fb0 <equiv_run+0x214>
    9ed4:	e59f10c8 	ldr	r1, [pc, #200]	; 9fa4 <equiv_run+0x208>
    9ed8:	e59f00d4 	ldr	r0, [pc, #212]	; 9fb4 <equiv_run+0x218>
    9edc:	eb00011d 	bl	a358 <printk>
    9ee0:	eb00024c 	bl	a818 <clean_reboot>
    9ee4:	e1a02001 	mov	r2, r1
    9ee8:	e3a01000 	mov	r1, #0, 0
    9eec:	e5821008 	str	r1, [r2, #8]
    9ef0:	eaffffb4 	b	9dc8 <equiv_run+0x2c>
    9ef4:	e3a030e2 	mov	r3, #226, 0	; 0xe2
    9ef8:	e59f20b8 	ldr	r2, [pc, #184]	; 9fb8 <equiv_run+0x21c>
    9efc:	e59f10a0 	ldr	r1, [pc, #160]	; 9fa4 <equiv_run+0x208>
    9f00:	e59f00b4 	ldr	r0, [pc, #180]	; 9fbc <equiv_run+0x220>
    9f04:	eb000113 	bl	a358 <printk>
    9f08:	eb000242 	bl	a818 <clean_reboot>
    9f0c:	e58d3004 	str	r3, [sp, #4]
    9f10:	e58d3000 	str	r3, [sp]
    9f14:	e3a03013 	mov	r3, #19, 0
    9f18:	e59f20a0 	ldr	r2, [pc, #160]	; 9fc0 <equiv_run+0x224>
    9f1c:	e59f10a0 	ldr	r1, [pc, #160]	; 9fc4 <equiv_run+0x228>
    9f20:	e59f00a0 	ldr	r0, [pc, #160]	; 9fc8 <equiv_run+0x22c>
    9f24:	eb00010b 	bl	a358 <printk>
    9f28:	eb00023a 	bl	a818 <clean_reboot>
    9f2c:	e59f3098 	ldr	r3, [pc, #152]	; 9fcc <equiv_run+0x230>
    9f30:	e58d3000 	str	r3, [sp]
    9f34:	e3a03060 	mov	r3, #96, 0	; 0x60
    9f38:	e59f2090 	ldr	r2, [pc, #144]	; 9fd0 <equiv_run+0x234>
    9f3c:	e59f1090 	ldr	r1, [pc, #144]	; 9fd4 <equiv_run+0x238>
    9f40:	e59f0060 	ldr	r0, [pc, #96]	; 9fa8 <equiv_run+0x20c>
    9f44:	eb000103 	bl	a358 <printk>
    9f48:	eb000232 	bl	a818 <clean_reboot>
    9f4c:	e58d3004 	str	r3, [sp, #4]
    9f50:	e58d3000 	str	r3, [sp]
    9f54:	e3a03013 	mov	r3, #19, 0
    9f58:	e59f2060 	ldr	r2, [pc, #96]	; 9fc0 <equiv_run+0x224>
    9f5c:	e59f1060 	ldr	r1, [pc, #96]	; 9fc4 <equiv_run+0x228>
    9f60:	e59f0060 	ldr	r0, [pc, #96]	; 9fc8 <equiv_run+0x22c>
    9f64:	eb0000fb 	bl	a358 <printk>
    9f68:	eb00022a 	bl	a818 <clean_reboot>
    9f6c:	e59f0020 	ldr	r0, [pc, #32]	; 9f94 <equiv_run+0x1f8>
    9f70:	ebfffcde 	bl	92f0 <cswitchto_user_asm>
    9f74:	eaffffba 	b	9e64 <equiv_run+0xc8>
    9f78:	e59f1038 	ldr	r1, [pc, #56]	; 9fb8 <equiv_run+0x21c>
    9f7c:	e59f0054 	ldr	r0, [pc, #84]	; 9fd8 <equiv_run+0x23c>
    9f80:	eb0000f4 	bl	a358 <printk>
    9f84:	e59f0050 	ldr	r0, [pc, #80]	; 9fdc <equiv_run+0x240>
    9f88:	eb0000f2 	bl	a358 <printk>
    9f8c:	eaffffb9 	b	9e78 <equiv_run+0xdc>
    9f90:	0000c144 	.word	0x0000c144
    9f94:	0000c150 	.word	0x0000c150
    9f98:	0000c0c0 	.word	0x0000c0c0
    9f9c:	0000b85c 	.word	0x0000b85c
    9fa0:	0000ba0c 	.word	0x0000ba0c
    9fa4:	0000b75c 	.word	0x0000b75c
    9fa8:	0000b20c 	.word	0x0000b20c
    9fac:	0000b850 	.word	0x0000b850
    9fb0:	0000ba14 	.word	0x0000ba14
    9fb4:	0000b81c 	.word	0x0000b81c
    9fb8:	0000ba74 	.word	0x0000ba74
    9fbc:	0000b9c8 	.word	0x0000b9c8
    9fc0:	0000ba44 	.word	0x0000ba44
    9fc4:	0000b1c0 	.word	0x0000b1c0
    9fc8:	0000b1cc 	.word	0x0000b1cc
    9fcc:	0000b3ac 	.word	0x0000b3ac
    9fd0:	0000ba80 	.word	0x0000ba80
    9fd4:	0000b3a0 	.word	0x0000b3a0
    9fd8:	0000b8d4 	.word	0x0000b8d4
    9fdc:	0000b9ec 	.word	0x0000b9ec

00009fe0 <equiv_init>:
    9fe0:	e92d4010 	push	{r4, lr}
    9fe4:	e3a01301 	mov	r1, #67108864	; 0x4000000
    9fe8:	e3a00601 	mov	r0, #1048576	; 0x100000
    9fec:	eb000326 	bl	ac8c <kmalloc_init_set_start>
    9ff0:	e3a01000 	mov	r1, #0, 0
    9ff4:	e59f000c 	ldr	r0, [pc, #12]	; a008 <equiv_init+0x28>
    9ff8:	ebfffa43 	bl	890c <mini_step_init>
    9ffc:	e59f0008 	ldr	r0, [pc, #8]	; a00c <equiv_init+0x2c>
    a000:	ebfffbfb 	bl	8ff4 <full_except_set_syscall>
    a004:	e8bd8010 	pop	{r4, pc}
    a008:	000097a0 	.word	0x000097a0
    a00c:	00009938 	.word	0x00009938

0000a010 <uart_can_put8>:
    a010:	e92d4010 	push	{r4, lr}
    a014:	eb00026f 	bl	a9d8 <dev_barrier>
    a018:	e59f0014 	ldr	r0, [pc, #20]	; a034 <uart_can_put8+0x24>
    a01c:	ebfff802 	bl	802c <GET32>
    a020:	e1a042a0 	lsr	r4, r0, #5
    a024:	e2044001 	and	r4, r4, #1, 0
    a028:	eb00026a 	bl	a9d8 <dev_barrier>
    a02c:	e1a00004 	mov	r0, r4
    a030:	e8bd8010 	pop	{r4, pc}
    a034:	20215054 	.word	0x20215054

0000a038 <uart_put8>:
    a038:	e92d4010 	push	{r4, lr}
    a03c:	e1a04000 	mov	r4, r0
    a040:	eb000264 	bl	a9d8 <dev_barrier>
    a044:	ebfffff1 	bl	a010 <uart_can_put8>
    a048:	e3500000 	cmp	r0, #0, 0
    a04c:	0afffffc 	beq	a044 <uart_put8+0xc>
    a050:	e1a01004 	mov	r1, r4
    a054:	e59f000c 	ldr	r0, [pc, #12]	; a068 <uart_put8+0x30>
    a058:	ebfff7f1 	bl	8024 <PUT32>
    a05c:	eb00025d 	bl	a9d8 <dev_barrier>
    a060:	e3a00000 	mov	r0, #0, 0
    a064:	e8bd8010 	pop	{r4, pc}
    a068:	20215040 	.word	0x20215040

0000a06c <uart_has_data>:
    a06c:	e92d4010 	push	{r4, lr}
    a070:	eb000258 	bl	a9d8 <dev_barrier>
    a074:	e59f0010 	ldr	r0, [pc, #16]	; a08c <uart_has_data+0x20>
    a078:	ebfff7eb 	bl	802c <GET32>
    a07c:	e2004001 	and	r4, r0, #1, 0
    a080:	eb000254 	bl	a9d8 <dev_barrier>
    a084:	e1a00004 	mov	r0, r4
    a088:	e8bd8010 	pop	{r4, pc}
    a08c:	20215054 	.word	0x20215054

0000a090 <uart_get8>:
    a090:	e92d4010 	push	{r4, lr}
    a094:	eb00024f 	bl	a9d8 <dev_barrier>
    a098:	ebfffff3 	bl	a06c <uart_has_data>
    a09c:	e3500000 	cmp	r0, #0, 0
    a0a0:	0afffffc 	beq	a098 <uart_get8+0x8>
    a0a4:	e59f0010 	ldr	r0, [pc, #16]	; a0bc <uart_get8+0x2c>
    a0a8:	ebfff7df 	bl	802c <GET32>
    a0ac:	e6ef4070 	uxtb	r4, r0
    a0b0:	eb000248 	bl	a9d8 <dev_barrier>
    a0b4:	e1a00004 	mov	r0, r4
    a0b8:	e8bd8010 	pop	{r4, pc}
    a0bc:	20215040 	.word	0x20215040

0000a0c0 <uart_get8_async>:
    a0c0:	e92d4010 	push	{r4, lr}
    a0c4:	ebffffe8 	bl	a06c <uart_has_data>
    a0c8:	e3500000 	cmp	r0, #0, 0
    a0cc:	0a000001 	beq	a0d8 <uart_get8_async+0x18>
    a0d0:	ebffffee 	bl	a090 <uart_get8>
    a0d4:	e8bd8010 	pop	{r4, pc}
    a0d8:	e3e00000 	mvn	r0, #0, 0
    a0dc:	e8bd8010 	pop	{r4, pc}

0000a0e0 <uart_tx_is_empty>:
    a0e0:	e92d4010 	push	{r4, lr}
    a0e4:	eb00023b 	bl	a9d8 <dev_barrier>
    a0e8:	e59f0014 	ldr	r0, [pc, #20]	; a104 <uart_tx_is_empty+0x24>
    a0ec:	ebfff7ce 	bl	802c <GET32>
    a0f0:	e1a04320 	lsr	r4, r0, #6
    a0f4:	e2044001 	and	r4, r4, #1, 0
    a0f8:	eb000236 	bl	a9d8 <dev_barrier>
    a0fc:	e1a00004 	mov	r0, r4
    a100:	e8bd8010 	pop	{r4, pc}
    a104:	20215054 	.word	0x20215054

0000a108 <uart_flush_tx>:
    a108:	e92d4010 	push	{r4, lr}
    a10c:	ebfffff3 	bl	a0e0 <uart_tx_is_empty>
    a110:	e3500000 	cmp	r0, #0, 0
    a114:	0afffffc 	beq	a10c <uart_flush_tx+0x4>
    a118:	e8bd8010 	pop	{r4, pc}

0000a11c <uart_init>:
    a11c:	e92d4010 	push	{r4, lr}
    a120:	eb00022c 	bl	a9d8 <dev_barrier>
    a124:	e59f4098 	ldr	r4, [pc, #152]	; a1c4 <uart_init+0xa8>
    a128:	e1a00004 	mov	r0, r4
    a12c:	ebfff7be 	bl	802c <GET32>
    a130:	e3801001 	orr	r1, r0, #1, 0
    a134:	e1a00004 	mov	r0, r4
    a138:	ebfff7b9 	bl	8024 <PUT32>
    a13c:	eb000225 	bl	a9d8 <dev_barrier>
    a140:	e284405c 	add	r4, r4, #92, 0	; 0x5c
    a144:	e3a01000 	mov	r1, #0, 0
    a148:	e1a00004 	mov	r0, r4
    a14c:	ebfff7b4 	bl	8024 <PUT32>
    a150:	eb000220 	bl	a9d8 <dev_barrier>
    a154:	e3a01006 	mov	r1, #6, 0
    a158:	e59f0068 	ldr	r0, [pc, #104]	; a1c8 <uart_init+0xac>
    a15c:	ebfff7b0 	bl	8024 <PUT32>
    a160:	eb00021c 	bl	a9d8 <dev_barrier>
    a164:	e3a01000 	mov	r1, #0, 0
    a168:	e59f005c 	ldr	r0, [pc, #92]	; a1cc <uart_init+0xb0>
    a16c:	ebfff7ac 	bl	8024 <PUT32>
    a170:	eb000218 	bl	a9d8 <dev_barrier>
    a174:	e3a01003 	mov	r1, #3, 0
    a178:	e59f0050 	ldr	r0, [pc, #80]	; a1d0 <uart_init+0xb4>
    a17c:	ebfff7a8 	bl	8024 <PUT32>
    a180:	eb000214 	bl	a9d8 <dev_barrier>
    a184:	e59f1048 	ldr	r1, [pc, #72]	; a1d4 <uart_init+0xb8>
    a188:	e59f0048 	ldr	r0, [pc, #72]	; a1d8 <uart_init+0xbc>
    a18c:	ebfff7a4 	bl	8024 <PUT32>
    a190:	eb000210 	bl	a9d8 <dev_barrier>
    a194:	e3a01002 	mov	r1, #2, 0
    a198:	e3a0000e 	mov	r0, #14, 0
    a19c:	eb000254 	bl	aaf4 <gpio_set_function>
    a1a0:	e3a01002 	mov	r1, #2, 0
    a1a4:	e3a0000f 	mov	r0, #15, 0
    a1a8:	eb000251 	bl	aaf4 <gpio_set_function>
    a1ac:	eb000209 	bl	a9d8 <dev_barrier>
    a1b0:	e3a01003 	mov	r1, #3, 0
    a1b4:	e1a00004 	mov	r0, r4
    a1b8:	ebfff799 	bl	8024 <PUT32>
    a1bc:	ebffffd1 	bl	a108 <uart_flush_tx>
    a1c0:	e8bd8010 	pop	{r4, pc}
    a1c4:	20215004 	.word	0x20215004
    a1c8:	20215048 	.word	0x20215048
    a1cc:	20215044 	.word	0x20215044
    a1d0:	2021504c 	.word	0x2021504c
    a1d4:	0000010f 	.word	0x0000010f
    a1d8:	20215068 	.word	0x20215068

0000a1dc <uart_disable>:
    a1dc:	e92d4010 	push	{r4, lr}
    a1e0:	eb0001fc 	bl	a9d8 <dev_barrier>
    a1e4:	ebffffc7 	bl	a108 <uart_flush_tx>
    a1e8:	e59f4018 	ldr	r4, [pc, #24]	; a208 <uart_disable+0x2c>
    a1ec:	e1a00004 	mov	r0, r4
    a1f0:	ebfff78d 	bl	802c <GET32>
    a1f4:	e3c01001 	bic	r1, r0, #1, 0
    a1f8:	e1a00004 	mov	r0, r4
    a1fc:	ebfff788 	bl	8024 <PUT32>
    a200:	eb0001f4 	bl	a9d8 <dev_barrier>
    a204:	e8bd8010 	pop	{r4, pc}
    a208:	20215004 	.word	0x20215004

0000a20c <memcpy>:
    a20c:	e3100007 	tst	r0, #7, 0
    a210:	1a00000f 	bne	a254 <memcpy+0x48>
    a214:	e3110007 	tst	r1, #7, 0
    a218:	1a00000d 	bne	a254 <memcpy+0x48>
    a21c:	e2123007 	ands	r3, r2, #7, 0
    a220:	1a00000b 	bne	a254 <memcpy+0x48>
    a224:	e1a021a2 	lsr	r2, r2, #3
    a228:	e1530002 	cmp	r3, r2
    a22c:	212fff1e 	bxcs	lr
    a230:	e92d0030 	push	{r4, r5}
    a234:	e1a0c183 	lsl	ip, r3, #3
    a238:	e18140dc 	ldrd	r4, [r1, ip]
    a23c:	e18040fc 	strd	r4, [r0, ip]
    a240:	e2833001 	add	r3, r3, #1, 0
    a244:	e1530002 	cmp	r3, r2
    a248:	3afffff9 	bcc	a234 <memcpy+0x28>
    a24c:	e8bd0030 	pop	{r4, r5}
    a250:	e12fff1e 	bx	lr
    a254:	e2103003 	ands	r3, r0, #3, 0
    a258:	1a000011 	bne	a2a4 <memcpy+0x98>
    a25c:	e211c003 	ands	ip, r1, #3, 0
    a260:	1a00000c 	bne	a298 <memcpy+0x8c>
    a264:	e2123003 	ands	r3, r2, #3, 0
    a268:	1a00000f 	bne	a2ac <memcpy+0xa0>
    a26c:	e1a02122 	lsr	r2, r2, #2
    a270:	ea000002 	b	a280 <memcpy+0x74>
    a274:	e791c103 	ldr	ip, [r1, r3, lsl #2]
    a278:	e780c103 	str	ip, [r0, r3, lsl #2]
    a27c:	e2833001 	add	r3, r3, #1, 0
    a280:	e1530002 	cmp	r3, r2
    a284:	3afffffa 	bcc	a274 <memcpy+0x68>
    a288:	e12fff1e 	bx	lr
    a28c:	e7d1c003 	ldrb	ip, [r1, r3]
    a290:	e7c0c003 	strb	ip, [r0, r3]
    a294:	e2833001 	add	r3, r3, #1, 0
    a298:	e1530002 	cmp	r3, r2
    a29c:	3afffffa 	bcc	a28c <memcpy+0x80>
    a2a0:	e12fff1e 	bx	lr
    a2a4:	e3a03000 	mov	r3, #0, 0
    a2a8:	eafffffa 	b	a298 <memcpy+0x8c>
    a2ac:	e1a0300c 	mov	r3, ip
    a2b0:	eafffff8 	b	a298 <memcpy+0x8c>

0000a2b4 <memcpy_end>:
    a2b4:	e12fff1e 	bx	lr

0000a2b8 <memset>:
    a2b8:	e3520000 	cmp	r2, #0, 0
    a2bc:	012fff1e 	bxeq	lr
    a2c0:	e3510000 	cmp	r1, #0, 0
    a2c4:	1a000007 	bne	a2e8 <memset+0x30>
    a2c8:	e3100007 	tst	r0, #7, 0
    a2cc:	1a000001 	bne	a2d8 <memset+0x20>
    a2d0:	e3120007 	tst	r2, #7, 0
    a2d4:	0a000011 	beq	a320 <memset+0x68>
    a2d8:	e3100003 	tst	r0, #3, 0
    a2dc:	1a000001 	bne	a2e8 <memset+0x30>
    a2e0:	e3120003 	tst	r2, #3, 0
    a2e4:	0a000001 	beq	a2f0 <memset+0x38>
    a2e8:	e0802002 	add	r2, r0, r2
    a2ec:	ea000008 	b	a314 <memset+0x5c>
    a2f0:	e1a02122 	lsr	r2, r2, #2
    a2f4:	ea000001 	b	a300 <memset+0x48>
    a2f8:	e4801004 	str	r1, [r0], #4
    a2fc:	e1a02003 	mov	r2, r3
    a300:	e2423001 	sub	r3, r2, #1, 0
    a304:	e3520000 	cmp	r2, #0, 0
    a308:	1afffffa 	bne	a2f8 <memset+0x40>
    a30c:	e12fff1e 	bx	lr
    a310:	e4c01001 	strb	r1, [r0], #1
    a314:	e1500002 	cmp	r0, r2
    a318:	3afffffc 	bcc	a310 <memset+0x58>
    a31c:	e12fff1e 	bx	lr
    a320:	e1a021a2 	lsr	r2, r2, #3
    a324:	e2423001 	sub	r3, r2, #1, 0
    a328:	e3520000 	cmp	r2, #0, 0
    a32c:	012fff1e 	bxeq	lr
    a330:	e92d0030 	push	{r4, r5}
    a334:	e1a04001 	mov	r4, r1
    a338:	e1a05fc1 	asr	r5, r1, #31
    a33c:	e0c040f8 	strd	r4, [r0], #8
    a340:	e1a02003 	mov	r2, r3
    a344:	e2433001 	sub	r3, r3, #1, 0
    a348:	e3520000 	cmp	r2, #0, 0
    a34c:	1afffff8 	bne	a334 <memset+0x7c>
    a350:	e8bd0030 	pop	{r4, r5}
    a354:	e12fff1e 	bx	lr

0000a358 <printk>:
    a358:	e92d000f 	push	{r0, r1, r2, r3}
    a35c:	e52de004 	push	{lr}		; (str lr, [sp, #-4]!)
    a360:	e24dd00c 	sub	sp, sp, #12, 0
    a364:	e28d1014 	add	r1, sp, #20, 0
    a368:	e58d1004 	str	r1, [sp, #4]
    a36c:	e59d0010 	ldr	r0, [sp, #16]
    a370:	eb000047 	bl	a494 <vprintk>
    a374:	e28dd00c 	add	sp, sp, #12, 0
    a378:	e49de004 	pop	{lr}		; (ldr lr, [sp], #4)
    a37c:	e28dd010 	add	sp, sp, #16, 0
    a380:	e12fff1e 	bx	lr

0000a384 <emit_val>:
    a384:	e92d4010 	push	{r4, lr}
    a388:	e24dd030 	sub	sp, sp, #48, 0	; 0x30
    a38c:	e350000a 	cmp	r0, #10, 0
    a390:	0a000014 	beq	a3e8 <emit_val+0x64>
    a394:	e3500010 	cmp	r0, #16, 0
    a398:	0a000022 	beq	a428 <emit_val+0xa4>
    a39c:	e3500002 	cmp	r0, #2, 0
    a3a0:	0a000006 	beq	a3c0 <emit_val+0x3c>
    a3a4:	e58d0000 	str	r0, [sp]
    a3a8:	e3a0301b 	mov	r3, #27, 0
    a3ac:	e59f20c0 	ldr	r2, [pc, #192]	; a474 <emit_val+0xf0>
    a3b0:	e59f10c0 	ldr	r1, [pc, #192]	; a478 <emit_val+0xf4>
    a3b4:	e59f00c0 	ldr	r0, [pc, #192]	; a47c <emit_val+0xf8>
    a3b8:	ebffffe6 	bl	a358 <printk>
    a3bc:	eb000115 	bl	a818 <clean_reboot>
    a3c0:	e28d400c 	add	r4, sp, #12, 0
    a3c4:	e2012001 	and	r2, r1, #1, 0
    a3c8:	e59f00b0 	ldr	r0, [pc, #176]	; a480 <emit_val+0xfc>
    a3cc:	e7d02002 	ldrb	r2, [r0, r2]
    a3d0:	e5c42000 	strb	r2, [r4]
    a3d4:	e2844001 	add	r4, r4, #1, 0
    a3d8:	e3510001 	cmp	r1, #1, 0
    a3dc:	e1a010a1 	lsr	r1, r1, #1
    a3e0:	8afffff7 	bhi	a3c4 <emit_val+0x40>
    a3e4:	ea00001d 	b	a460 <emit_val+0xdc>
    a3e8:	e28d400c 	add	r4, sp, #12, 0
    a3ec:	e59f3090 	ldr	r3, [pc, #144]	; a484 <emit_val+0x100>
    a3f0:	e0832193 	umull	r2, r3, r3, r1
    a3f4:	e1a031a3 	lsr	r3, r3, #3
    a3f8:	e1a00003 	mov	r0, r3
    a3fc:	e0833103 	add	r3, r3, r3, lsl #2
    a400:	e0413083 	sub	r3, r1, r3, lsl #1
    a404:	e59fc07c 	ldr	ip, [pc, #124]	; a488 <emit_val+0x104>
    a408:	e7dcc003 	ldrb	ip, [ip, r3]
    a40c:	e5c4c000 	strb	ip, [r4]
    a410:	e2844001 	add	r4, r4, #1, 0
    a414:	e1a03001 	mov	r3, r1
    a418:	e1a01000 	mov	r1, r0
    a41c:	e3530009 	cmp	r3, #9, 0
    a420:	8afffff1 	bhi	a3ec <emit_val+0x68>
    a424:	ea00000d 	b	a460 <emit_val+0xdc>
    a428:	e28d400c 	add	r4, sp, #12, 0
    a42c:	e201200f 	and	r2, r1, #15, 0
    a430:	e59f0054 	ldr	r0, [pc, #84]	; a48c <emit_val+0x108>
    a434:	e7d02002 	ldrb	r2, [r0, r2]
    a438:	e5c42000 	strb	r2, [r4]
    a43c:	e2844001 	add	r4, r4, #1, 0
    a440:	e351000f 	cmp	r1, #15, 0
    a444:	e1a01221 	lsr	r1, r1, #4
    a448:	8afffff7 	bhi	a42c <emit_val+0xa8>
    a44c:	ea000003 	b	a460 <emit_val+0xdc>
    a450:	e59f3038 	ldr	r3, [pc, #56]	; a490 <emit_val+0x10c>
    a454:	e5933000 	ldr	r3, [r3]
    a458:	e5740001 	ldrb	r0, [r4, #-1]!
    a45c:	e12fff33 	blx	r3
    a460:	e28d300c 	add	r3, sp, #12, 0
    a464:	e1540003 	cmp	r4, r3
    a468:	8afffff8 	bhi	a450 <emit_val+0xcc>
    a46c:	e28dd030 	add	sp, sp, #48, 0	; 0x30
    a470:	e8bd8010 	pop	{r4, pc}
    a474:	0000bb4c 	.word	0x0000bb4c
    a478:	0000ba94 	.word	0x0000ba94
    a47c:	0000baa4 	.word	0x0000baa4
    a480:	0000bac8 	.word	0x0000bac8
    a484:	cccccccd 	.word	0xcccccccd
    a488:	0000bacc 	.word	0x0000bacc
    a48c:	0000bad8 	.word	0x0000bad8
    a490:	0000c0c8 	.word	0x0000c0c8

0000a494 <vprintk>:
    a494:	e92d4030 	push	{r4, r5, lr}
    a498:	e24dd014 	sub	sp, sp, #20, 0
    a49c:	e1a04000 	mov	r4, r0
    a4a0:	e58d100c 	str	r1, [sp, #12]
    a4a4:	ea000003 	b	a4b8 <vprintk+0x24>
    a4a8:	e59f3288 	ldr	r3, [pc, #648]	; a738 <vprintk+0x2a4>
    a4ac:	e5933000 	ldr	r3, [r3]
    a4b0:	e12fff33 	blx	r3
    a4b4:	e2844001 	add	r4, r4, #1, 0
    a4b8:	e5d40000 	ldrb	r0, [r4]
    a4bc:	e3500000 	cmp	r0, #0, 0
    a4c0:	0a00009a 	beq	a730 <vprintk+0x29c>
    a4c4:	e3500025 	cmp	r0, #37, 0	; 0x25
    a4c8:	1afffff6 	bne	a4a8 <vprintk+0x14>
    a4cc:	e2845001 	add	r5, r4, #1, 0
    a4d0:	e5d42001 	ldrb	r2, [r4, #1]
    a4d4:	e2423062 	sub	r3, r2, #98, 0	; 0x62
    a4d8:	e3530016 	cmp	r3, #22, 0
    a4dc:	979ff103 	ldrls	pc, [pc, r3, lsl #2]
    a4e0:	ea00008b 	b	a714 <vprintk+0x280>
    a4e4:	0000a540 	.word	0x0000a540
    a4e8:	0000a580 	.word	0x0000a580
    a4ec:	0000a698 	.word	0x0000a698
    a4f0:	0000a714 	.word	0x0000a714
    a4f4:	0000a714 	.word	0x0000a714
    a4f8:	0000a714 	.word	0x0000a714
    a4fc:	0000a714 	.word	0x0000a714
    a500:	0000a714 	.word	0x0000a714
    a504:	0000a714 	.word	0x0000a714
    a508:	0000a714 	.word	0x0000a714
    a50c:	0000a5a4 	.word	0x0000a5a4
    a510:	0000a714 	.word	0x0000a714
    a514:	0000a714 	.word	0x0000a714
    a518:	0000a714 	.word	0x0000a714
    a51c:	0000a65c 	.word	0x0000a65c
    a520:	0000a714 	.word	0x0000a714
    a524:	0000a714 	.word	0x0000a714
    a528:	0000a6dc 	.word	0x0000a6dc
    a52c:	0000a714 	.word	0x0000a714
    a530:	0000a560 	.word	0x0000a560
    a534:	0000a714 	.word	0x0000a714
    a538:	0000a714 	.word	0x0000a714
    a53c:	0000a65c 	.word	0x0000a65c
    a540:	e59d300c 	ldr	r3, [sp, #12]
    a544:	e2832004 	add	r2, r3, #4, 0
    a548:	e58d200c 	str	r2, [sp, #12]
    a54c:	e5931000 	ldr	r1, [r3]
    a550:	e3a00002 	mov	r0, #2, 0
    a554:	ebffff8a 	bl	a384 <emit_val>
    a558:	e1a04005 	mov	r4, r5
    a55c:	eaffffd4 	b	a4b4 <vprintk+0x20>
    a560:	e59d300c 	ldr	r3, [sp, #12]
    a564:	e2832004 	add	r2, r3, #4, 0
    a568:	e58d200c 	str	r2, [sp, #12]
    a56c:	e5931000 	ldr	r1, [r3]
    a570:	e3a0000a 	mov	r0, #10, 0
    a574:	ebffff82 	bl	a384 <emit_val>
    a578:	e1a04005 	mov	r4, r5
    a57c:	eaffffcc 	b	a4b4 <vprintk+0x20>
    a580:	e59f31b0 	ldr	r3, [pc, #432]	; a738 <vprintk+0x2a4>
    a584:	e5932000 	ldr	r2, [r3]
    a588:	e59d300c 	ldr	r3, [sp, #12]
    a58c:	e2831004 	add	r1, r3, #4, 0
    a590:	e58d100c 	str	r1, [sp, #12]
    a594:	e5930000 	ldr	r0, [r3]
    a598:	e12fff32 	blx	r2
    a59c:	e1a04005 	mov	r4, r5
    a5a0:	eaffffc3 	b	a4b4 <vprintk+0x20>
    a5a4:	e2842002 	add	r2, r4, #2, 0
    a5a8:	e5d43002 	ldrb	r3, [r4, #2]
    a5ac:	e353006c 	cmp	r3, #108, 0	; 0x6c
    a5b0:	1a000018 	bne	a618 <vprintk+0x184>
    a5b4:	e2845003 	add	r5, r4, #3, 0
    a5b8:	e5d43003 	ldrb	r3, [r4, #3]
    a5bc:	e3530078 	cmp	r3, #120, 0	; 0x78
    a5c0:	1a00001b 	bne	a634 <vprintk+0x1a0>
    a5c4:	e59f416c 	ldr	r4, [pc, #364]	; a738 <vprintk+0x2a4>
    a5c8:	e5943000 	ldr	r3, [r4]
    a5cc:	e3a00030 	mov	r0, #48, 0	; 0x30
    a5d0:	e12fff33 	blx	r3
    a5d4:	e5943000 	ldr	r3, [r4]
    a5d8:	e3a00078 	mov	r0, #120, 0	; 0x78
    a5dc:	e12fff33 	blx	r3
    a5e0:	e59d300c 	ldr	r3, [sp, #12]
    a5e4:	e2833007 	add	r3, r3, #7, 0
    a5e8:	e3c33007 	bic	r3, r3, #7, 0
    a5ec:	e2832008 	add	r2, r3, #8, 0
    a5f0:	e58d200c 	str	r2, [sp, #12]
    a5f4:	e5934000 	ldr	r4, [r3]
    a5f8:	e5931004 	ldr	r1, [r3, #4]
    a5fc:	e3510000 	cmp	r1, #0, 0
    a600:	1a000012 	bne	a650 <vprintk+0x1bc>
    a604:	e1a01004 	mov	r1, r4
    a608:	e3a00010 	mov	r0, #16, 0
    a60c:	ebffff5c 	bl	a384 <emit_val>
    a610:	e1a04005 	mov	r4, r5
    a614:	eaffffa6 	b	a4b4 <vprintk+0x20>
    a618:	e58d2000 	str	r2, [sp]
    a61c:	e3a0303b 	mov	r3, #59, 0	; 0x3b
    a620:	e59f2114 	ldr	r2, [pc, #276]	; a73c <vprintk+0x2a8>
    a624:	e59f1114 	ldr	r1, [pc, #276]	; a740 <vprintk+0x2ac>
    a628:	e59f0114 	ldr	r0, [pc, #276]	; a744 <vprintk+0x2b0>
    a62c:	ebffff49 	bl	a358 <printk>
    a630:	eb000078 	bl	a818 <clean_reboot>
    a634:	e58d5000 	str	r5, [sp]
    a638:	e3a0303e 	mov	r3, #62, 0	; 0x3e
    a63c:	e59f20f8 	ldr	r2, [pc, #248]	; a73c <vprintk+0x2a8>
    a640:	e59f10f8 	ldr	r1, [pc, #248]	; a740 <vprintk+0x2ac>
    a644:	e59f00f8 	ldr	r0, [pc, #248]	; a744 <vprintk+0x2b0>
    a648:	ebffff42 	bl	a358 <printk>
    a64c:	eb000071 	bl	a818 <clean_reboot>
    a650:	e3a00010 	mov	r0, #16, 0
    a654:	ebffff4a 	bl	a384 <emit_val>
    a658:	eaffffe9 	b	a604 <vprintk+0x170>
    a65c:	e59f40d4 	ldr	r4, [pc, #212]	; a738 <vprintk+0x2a4>
    a660:	e5943000 	ldr	r3, [r4]
    a664:	e3a00030 	mov	r0, #48, 0	; 0x30
    a668:	e12fff33 	blx	r3
    a66c:	e5943000 	ldr	r3, [r4]
    a670:	e3a00078 	mov	r0, #120, 0	; 0x78
    a674:	e12fff33 	blx	r3
    a678:	e59d300c 	ldr	r3, [sp, #12]
    a67c:	e2832004 	add	r2, r3, #4, 0
    a680:	e58d200c 	str	r2, [sp, #12]
    a684:	e5931000 	ldr	r1, [r3]
    a688:	e3a00010 	mov	r0, #16, 0
    a68c:	ebffff3c 	bl	a384 <emit_val>
    a690:	e1a04005 	mov	r4, r5
    a694:	eaffff86 	b	a4b4 <vprintk+0x20>
    a698:	e59d300c 	ldr	r3, [sp, #12]
    a69c:	e2832004 	add	r2, r3, #4, 0
    a6a0:	e58d200c 	str	r2, [sp, #12]
    a6a4:	e5934000 	ldr	r4, [r3]
    a6a8:	e3540000 	cmp	r4, #0, 0
    a6ac:	ba000004 	blt	a6c4 <vprintk+0x230>
    a6b0:	e1a01004 	mov	r1, r4
    a6b4:	e3a0000a 	mov	r0, #10, 0
    a6b8:	ebffff31 	bl	a384 <emit_val>
    a6bc:	e1a04005 	mov	r4, r5
    a6c0:	eaffff7b 	b	a4b4 <vprintk+0x20>
    a6c4:	e59f306c 	ldr	r3, [pc, #108]	; a738 <vprintk+0x2a4>
    a6c8:	e5933000 	ldr	r3, [r3]
    a6cc:	e3a0002d 	mov	r0, #45, 0	; 0x2d
    a6d0:	e12fff33 	blx	r3
    a6d4:	e2644000 	rsb	r4, r4, #0, 0
    a6d8:	eafffff4 	b	a6b0 <vprintk+0x21c>
    a6dc:	e59d300c 	ldr	r3, [sp, #12]
    a6e0:	e2832004 	add	r2, r3, #4, 0
    a6e4:	e58d200c 	str	r2, [sp, #12]
    a6e8:	e5934000 	ldr	r4, [r3]
    a6ec:	e5d40000 	ldrb	r0, [r4]
    a6f0:	e3500000 	cmp	r0, #0, 0
    a6f4:	0a000004 	beq	a70c <vprintk+0x278>
    a6f8:	e59f3038 	ldr	r3, [pc, #56]	; a738 <vprintk+0x2a4>
    a6fc:	e5933000 	ldr	r3, [r3]
    a700:	e12fff33 	blx	r3
    a704:	e2844001 	add	r4, r4, #1, 0
    a708:	eafffff7 	b	a6ec <vprintk+0x258>
    a70c:	e1a04005 	mov	r4, r5
    a710:	eaffff67 	b	a4b4 <vprintk+0x20>
    a714:	e58d2000 	str	r2, [sp]
    a718:	e3a03062 	mov	r3, #98, 0	; 0x62
    a71c:	e59f2018 	ldr	r2, [pc, #24]	; a73c <vprintk+0x2a8>
    a720:	e59f1018 	ldr	r1, [pc, #24]	; a740 <vprintk+0x2ac>
    a724:	e59f001c 	ldr	r0, [pc, #28]	; a748 <vprintk+0x2b4>
    a728:	ebffff0a 	bl	a358 <printk>
    a72c:	eb000039 	bl	a818 <clean_reboot>
    a730:	e28dd014 	add	sp, sp, #20, 0
    a734:	e8bd8030 	pop	{r4, r5, pc}
    a738:	0000c0c8 	.word	0x0000c0c8
    a73c:	0000bb58 	.word	0x0000bb58
    a740:	0000ba94 	.word	0x0000ba94
    a744:	0000baec 	.word	0x0000baec
    a748:	0000bb24 	.word	0x0000bb24

0000a74c <default_putchar>:
    a74c:	e92d4010 	push	{r4, lr}
    a750:	e1a04000 	mov	r4, r0
    a754:	e6ef0070 	uxtb	r0, r0
    a758:	ebfffe36 	bl	a038 <uart_put8>
    a75c:	e1a00004 	mov	r0, r4
    a760:	e8bd8010 	pop	{r4, pc}

0000a764 <rpi_putchar_set>:
    a764:	e59f300c 	ldr	r3, [pc, #12]	; a778 <rpi_putchar_set+0x14>
    a768:	e5932000 	ldr	r2, [r3]
    a76c:	e5830000 	str	r0, [r3]
    a770:	e1a00002 	mov	r0, r2
    a774:	e12fff1e 	bx	lr
    a778:	0000c0c8 	.word	0x0000c0c8

0000a77c <asm_not_reached_helper>:
    a77c:	e92d4010 	push	{r4, lr}
    a780:	e1a04000 	mov	r4, r0
    a784:	e59f0010 	ldr	r0, [pc, #16]	; a79c <asm_not_reached_helper+0x20>
    a788:	ebfffef2 	bl	a358 <printk>
    a78c:	e1a01004 	mov	r1, r4
    a790:	e59f0008 	ldr	r0, [pc, #8]	; a7a0 <asm_not_reached_helper+0x24>
    a794:	ebfffeef 	bl	a358 <printk>
    a798:	eb00001e 	bl	a818 <clean_reboot>
    a79c:	0000bb60 	.word	0x0000bb60
    a7a0:	0000bb94 	.word	0x0000bb94

0000a7a4 <asm_not_implemented_helper>:
    a7a4:	e92d4010 	push	{r4, lr}
    a7a8:	e1a04000 	mov	r4, r0
    a7ac:	e59f0010 	ldr	r0, [pc, #16]	; a7c4 <asm_not_implemented_helper+0x20>
    a7b0:	ebfffee8 	bl	a358 <printk>
    a7b4:	e1a01004 	mov	r1, r4
    a7b8:	e59f0008 	ldr	r0, [pc, #8]	; a7c8 <asm_not_implemented_helper+0x24>
    a7bc:	ebfffee5 	bl	a358 <printk>
    a7c0:	eb000014 	bl	a818 <clean_reboot>
    a7c4:	0000bbc8 	.word	0x0000bbc8
    a7c8:	0000bb94 	.word	0x0000bb94

0000a7cc <asm_todo_helper>:
    a7cc:	e92d4010 	push	{r4, lr}
    a7d0:	e1a04001 	mov	r4, r1
    a7d4:	e59f0018 	ldr	r0, [pc, #24]	; a7f4 <asm_todo_helper+0x28>
    a7d8:	ebfffede 	bl	a358 <printk>
    a7dc:	e59f0014 	ldr	r0, [pc, #20]	; a7f8 <asm_todo_helper+0x2c>
    a7e0:	ebfffedc 	bl	a358 <printk>
    a7e4:	e1a01004 	mov	r1, r4
    a7e8:	e59f000c 	ldr	r0, [pc, #12]	; a7fc <asm_todo_helper+0x30>
    a7ec:	ebfffed9 	bl	a358 <printk>
    a7f0:	eb000008 	bl	a818 <clean_reboot>
    a7f4:	0000bbf4 	.word	0x0000bbf4
    a7f8:	0000bc2c 	.word	0x0000bc2c
    a7fc:	0000bc60 	.word	0x0000bc60

0000a800 <asm_bad_exception_helper>:
    a800:	e92d4010 	push	{r4, lr}
    a804:	e1a02000 	mov	r2, r0
    a808:	e59f0004 	ldr	r0, [pc, #4]	; a814 <asm_bad_exception_helper+0x14>
    a80c:	ebfffed1 	bl	a358 <printk>
    a810:	eb000000 	bl	a818 <clean_reboot>
    a814:	0000bc68 	.word	0x0000bc68

0000a818 <clean_reboot>:
    a818:	e92d4010 	push	{r4, lr}
    a81c:	e59f0010 	ldr	r0, [pc, #16]	; a834 <clean_reboot+0x1c>
    a820:	eb0001fb 	bl	b014 <putk>
    a824:	ebfffe37 	bl	a108 <uart_flush_tx>
    a828:	e3a0000a 	mov	r0, #10, 0
    a82c:	eb0000a4 	bl	aac4 <delay_ms>
    a830:	eb000079 	bl	aa1c <rpi_reboot>
    a834:	0000bc88 	.word	0x0000bc88

0000a838 <_cstart>:
    a838:	e52de004 	push	{lr}		; (str lr, [sp, #-4]!)
    a83c:	e24dd014 	sub	sp, sp, #20, 0
    a840:	eb000027 	bl	a8e4 <custom_loader>
    a844:	e59f3084 	ldr	r3, [pc, #132]	; a8d0 <_cstart+0x98>
    a848:	ea000001 	b	a854 <_cstart+0x1c>
    a84c:	e3a02000 	mov	r2, #0, 0
    a850:	e4832004 	str	r2, [r3], #4
    a854:	e59f2078 	ldr	r2, [pc, #120]	; a8d4 <_cstart+0x9c>
    a858:	e1530002 	cmp	r3, r2
    a85c:	3afffffa 	bcc	a84c <_cstart+0x14>
    a860:	e3a02a01 	mov	r2, #4096	; 0x1000
    a864:	e3a01000 	mov	r1, #0, 0
    a868:	e1a00001 	mov	r0, r1
    a86c:	ebfffe91 	bl	a2b8 <memset>
    a870:	e3a03000 	mov	r3, #0, 0
    a874:	e3530b01 	cmp	r3, #1024	; 0x400
    a878:	2a00000f 	bcs	a8bc <_cstart+0x84>
    a87c:	e1a02103 	lsl	r2, r3, #2
    a880:	e5921000 	ldr	r1, [r2]
    a884:	e3510000 	cmp	r1, #0, 0
    a888:	02833001 	addeq	r3, r3, #1, 0
    a88c:	0afffff8 	beq	a874 <_cstart+0x3c>
    a890:	e5923000 	ldr	r3, [r2]
    a894:	e3a01001 	mov	r1, #1, 0
    a898:	e58d1008 	str	r1, [sp, #8]
    a89c:	e58d3004 	str	r3, [sp, #4]
    a8a0:	e58d2000 	str	r2, [sp]
    a8a4:	e3a03012 	mov	r3, #18, 0
    a8a8:	e59f2028 	ldr	r2, [pc, #40]	; a8d8 <_cstart+0xa0>
    a8ac:	e59f1028 	ldr	r1, [pc, #40]	; a8dc <_cstart+0xa4>
    a8b0:	e59f0028 	ldr	r0, [pc, #40]	; a8e0 <_cstart+0xa8>
    a8b4:	ebfffea7 	bl	a358 <printk>
    a8b8:	ebffffd6 	bl	a818 <clean_reboot>
    a8bc:	ebfffe16 	bl	a11c <uart_init>
    a8c0:	e3a03001 	mov	r3, #1, 0
    a8c4:	ee0f3f1c 	mcr	15, 0, r3, cr15, cr12, {0}
    a8c8:	ebfff628 	bl	8170 <notmain>
    a8cc:	ebffffd1 	bl	a818 <clean_reboot>
    a8d0:	0000c0d8 	.word	0x0000c0d8
    a8d4:	0000c198 	.word	0x0000c198
    a8d8:	0000bd14 	.word	0x0000bd14
    a8dc:	0000bc94 	.word	0x0000bc94
    a8e0:	0000bcd8 	.word	0x0000bcd8

0000a8e4 <custom_loader>:
    a8e4:	e12fff1e 	bx	lr

0000a8e8 <int_vector>:
    a8e8:	e52de004 	push	{lr}		; (str lr, [sp, #-4]!)
    a8ec:	e24dd00c 	sub	sp, sp, #12, 0
    a8f0:	e58d0004 	str	r0, [sp, #4]
    a8f4:	e59f3018 	ldr	r3, [pc, #24]	; a914 <int_vector+0x2c>
    a8f8:	e58d3000 	str	r3, [sp]
    a8fc:	e3a03003 	mov	r3, #3, 0
    a900:	e59f2010 	ldr	r2, [pc, #16]	; a918 <int_vector+0x30>
    a904:	e59f1010 	ldr	r1, [pc, #16]	; a91c <int_vector+0x34>
    a908:	e59f0010 	ldr	r0, [pc, #16]	; a920 <int_vector+0x38>
    a90c:	ebfffe91 	bl	a358 <printk>
    a910:	ebffffc0 	bl	a818 <clean_reboot>
    a914:	0000bd94 	.word	0x0000bd94
    a918:	0000bda0 	.word	0x0000bda0
    a91c:	0000bd24 	.word	0x0000bd24
    a920:	0000bd48 	.word	0x0000bd48

0000a924 <prefetch_abort_vector>:
    a924:	e52de004 	push	{lr}		; (str lr, [sp, #-4]!)
    a928:	e24dd00c 	sub	sp, sp, #12, 0
    a92c:	e58d0004 	str	r0, [sp, #4]
    a930:	e59f3018 	ldr	r3, [pc, #24]	; a950 <prefetch_abort_vector+0x2c>
    a934:	e58d3000 	str	r3, [sp]
    a938:	e3a03002 	mov	r3, #2, 0
    a93c:	e59f2010 	ldr	r2, [pc, #16]	; a954 <prefetch_abort_vector+0x30>
    a940:	e59f1010 	ldr	r1, [pc, #16]	; a958 <prefetch_abort_vector+0x34>
    a944:	e59f0010 	ldr	r0, [pc, #16]	; a95c <prefetch_abort_vector+0x38>
    a948:	ebfffe82 	bl	a358 <printk>
    a94c:	ebffffb1 	bl	a818 <clean_reboot>
    a950:	0000bdd4 	.word	0x0000bdd4
    a954:	0000bde4 	.word	0x0000bde4
    a958:	0000bdac 	.word	0x0000bdac
    a95c:	0000bd48 	.word	0x0000bd48

0000a960 <reset_vector>:
    a960:	e52de004 	push	{lr}		; (str lr, [sp, #-4]!)
    a964:	e24dd00c 	sub	sp, sp, #12, 0
    a968:	e58d0004 	str	r0, [sp, #4]
    a96c:	e59f3018 	ldr	r3, [pc, #24]	; a98c <reset_vector+0x2c>
    a970:	e58d3000 	str	r3, [sp]
    a974:	e3a03002 	mov	r3, #2, 0
    a978:	e59f2010 	ldr	r2, [pc, #16]	; a990 <reset_vector+0x30>
    a97c:	e59f1010 	ldr	r1, [pc, #16]	; a994 <reset_vector+0x34>
    a980:	e59f0010 	ldr	r0, [pc, #16]	; a998 <reset_vector+0x38>
    a984:	ebfffe73 	bl	a358 <printk>
    a988:	ebffffa2 	bl	a818 <clean_reboot>
    a98c:	0000be20 	.word	0x0000be20
    a990:	0000be28 	.word	0x0000be28
    a994:	0000bdfc 	.word	0x0000bdfc
    a998:	0000bd48 	.word	0x0000bd48

0000a99c <undefined_instruction_vector>:
    a99c:	e52de004 	push	{lr}		; (str lr, [sp, #-4]!)
    a9a0:	e24dd00c 	sub	sp, sp, #12, 0
    a9a4:	e58d0004 	str	r0, [sp, #4]
    a9a8:	e59f3018 	ldr	r3, [pc, #24]	; a9c8 <undefined_instruction_vector+0x2c>
    a9ac:	e58d3000 	str	r3, [sp]
    a9b0:	e3a03002 	mov	r3, #2, 0
    a9b4:	e59f2010 	ldr	r2, [pc, #16]	; a9cc <undefined_instruction_vector+0x30>
    a9b8:	e59f1010 	ldr	r1, [pc, #16]	; a9d0 <undefined_instruction_vector+0x34>
    a9bc:	e59f0010 	ldr	r0, [pc, #16]	; a9d4 <undefined_instruction_vector+0x38>
    a9c0:	ebfffe64 	bl	a358 <printk>
    a9c4:	ebffff93 	bl	a818 <clean_reboot>
    a9c8:	0000be68 	.word	0x0000be68
    a9cc:	0000be78 	.word	0x0000be78
    a9d0:	0000be38 	.word	0x0000be38
    a9d4:	0000bd48 	.word	0x0000bd48

0000a9d8 <dev_barrier>:
    a9d8:	ea000002 	b	a9e8 <dsb>

0000a9dc <dmb>:
    a9dc:	e3a00000 	mov	r0, #0, 0
    a9e0:	ee070fba 	mcr	15, 0, r0, cr7, cr10, {5}
    a9e4:	e12fff1e 	bx	lr

0000a9e8 <dsb>:
    a9e8:	ee070f9a 	mcr	15, 0, r0, cr7, cr10, {4}
    a9ec:	e12fff1e 	bx	lr

0000a9f0 <at_user_level>:
    a9f0:	e10f0000 	mrs	r0, CPSR
    a9f4:	e200001f 	and	r0, r0, #31, 0
    a9f8:	e3500010 	cmp	r0, #16, 0
    a9fc:	13a00000 	movne	r0, #0, 0
    aa00:	03a00001 	moveq	r0, #1, 0
    aa04:	e12fff1e 	bx	lr

0000aa08 <set_user_level>:
    aa08:	e10f3000 	mrs	r3, CPSR
    aa0c:	e3c3301f 	bic	r3, r3, #31, 0
    aa10:	e3833010 	orr	r3, r3, #16, 0
    aa14:	e129f003 	msr	CPSR_fc, r3
    aa18:	e12fff1e 	bx	lr

0000aa1c <rpi_reboot>:
    aa1c:	e92d4010 	push	{r4, lr}
    aa20:	ebfffff2 	bl	a9f0 <at_user_level>
    aa24:	e3500000 	cmp	r0, #0, 0
    aa28:	1a00000a 	bne	aa58 <rpi_reboot+0x3c>
    aa2c:	eb000185 	bl	b048 <reboot_callout>
    aa30:	ebfffdb4 	bl	a108 <uart_flush_tx>
    aa34:	e3a0000a 	mov	r0, #10, 0
    aa38:	eb000021 	bl	aac4 <delay_ms>
    aa3c:	e59f101c 	ldr	r1, [pc, #28]	; aa60 <rpi_reboot+0x44>
    aa40:	e59f001c 	ldr	r0, [pc, #28]	; aa64 <rpi_reboot+0x48>
    aa44:	ebfff576 	bl	8024 <PUT32>
    aa48:	e59f1018 	ldr	r1, [pc, #24]	; aa68 <rpi_reboot+0x4c>
    aa4c:	e59f0018 	ldr	r0, [pc, #24]	; aa6c <rpi_reboot+0x50>
    aa50:	ebfff573 	bl	8024 <PUT32>
    aa54:	eafffffe 	b	aa54 <rpi_reboot+0x38>
    aa58:	ebffffea 	bl	aa08 <set_user_level>
    aa5c:	eafffff2 	b	aa2c <rpi_reboot+0x10>
    aa60:	5a000001 	.word	0x5a000001
    aa64:	20100024 	.word	0x20100024
    aa68:	5a000020 	.word	0x5a000020
    aa6c:	2010001c 	.word	0x2010001c

0000aa70 <timer_get_usec_raw>:
    aa70:	e92d4010 	push	{r4, lr}
    aa74:	e59f0004 	ldr	r0, [pc, #4]	; aa80 <timer_get_usec_raw+0x10>
    aa78:	ebfff56b 	bl	802c <GET32>
    aa7c:	e8bd8010 	pop	{r4, pc}
    aa80:	20003004 	.word	0x20003004

0000aa84 <timer_get_usec>:
    aa84:	e92d4010 	push	{r4, lr}
    aa88:	ebffffd2 	bl	a9d8 <dev_barrier>
    aa8c:	ebfffff7 	bl	aa70 <timer_get_usec_raw>
    aa90:	e1a04000 	mov	r4, r0
    aa94:	ebffffcf 	bl	a9d8 <dev_barrier>
    aa98:	e1a00004 	mov	r0, r4
    aa9c:	e8bd8010 	pop	{r4, pc}

0000aaa0 <delay_us>:
    aaa0:	e92d4070 	push	{r4, r5, r6, lr}
    aaa4:	e1a05000 	mov	r5, r0
    aaa8:	ebfffff5 	bl	aa84 <timer_get_usec>
    aaac:	e1a04000 	mov	r4, r0
    aab0:	ebfffff3 	bl	aa84 <timer_get_usec>
    aab4:	e0400004 	sub	r0, r0, r4
    aab8:	e1500005 	cmp	r0, r5
    aabc:	3afffffb 	bcc	aab0 <delay_us+0x10>
    aac0:	e8bd8070 	pop	{r4, r5, r6, pc}

0000aac4 <delay_ms>:
    aac4:	e92d4010 	push	{r4, lr}
    aac8:	e0603280 	rsb	r3, r0, r0, lsl #5
    aacc:	e0800103 	add	r0, r0, r3, lsl #2
    aad0:	e1a00180 	lsl	r0, r0, #3
    aad4:	ebfffff1 	bl	aaa0 <delay_us>
    aad8:	e8bd8010 	pop	{r4, pc}

0000aadc <delay_sec>:
    aadc:	e92d4010 	push	{r4, lr}
    aae0:	e0603280 	rsb	r3, r0, r0, lsl #5
    aae4:	e0800103 	add	r0, r0, r3, lsl #2
    aae8:	e1a00180 	lsl	r0, r0, #3
    aaec:	ebfffff4 	bl	aac4 <delay_ms>
    aaf0:	e8bd8010 	pop	{r4, pc}

0000aaf4 <gpio_set_function>:
    aaf4:	e350002f 	cmp	r0, #47, 0	; 0x2f
    aaf8:	1350001f 	cmpne	r0, #31, 0
    aafc:	812fff1e 	bxhi	lr
    ab00:	e92d4070 	push	{r4, r5, r6, lr}
    ab04:	e1a05001 	mov	r5, r1
    ab08:	e3d13007 	bics	r3, r1, #7, 0
    ab0c:	18bd8070 	popne	{r4, r5, r6, pc}
    ab10:	e59f3040 	ldr	r3, [pc, #64]	; ab58 <gpio_set_function+0x64>
    ab14:	e0832093 	umull	r2, r3, r3, r0
    ab18:	e1a031a3 	lsr	r3, r3, #3
    ab1c:	e1a02003 	mov	r2, r3
    ab20:	e0833103 	add	r3, r3, r3, lsl #2
    ab24:	e0403083 	sub	r3, r0, r3, lsl #1
    ab28:	e0834083 	add	r4, r3, r3, lsl #1
    ab2c:	e2820302 	add	r0, r2, #134217728	; 0x8000000
    ab30:	e2800702 	add	r0, r0, #524288	; 0x80000
    ab34:	e1a06100 	lsl	r6, r0, #2
    ab38:	e1a00006 	mov	r0, r6
    ab3c:	ebfff53a 	bl	802c <GET32>
    ab40:	e3a01007 	mov	r1, #7, 0
    ab44:	e1c01411 	bic	r1, r0, r1, lsl r4
    ab48:	e1811415 	orr	r1, r1, r5, lsl r4
    ab4c:	e1a00006 	mov	r0, r6
    ab50:	ebfff533 	bl	8024 <PUT32>
    ab54:	e8bd8070 	pop	{r4, r5, r6, pc}
    ab58:	cccccccd 	.word	0xcccccccd

0000ab5c <gpio_set_output>:
    ab5c:	e92d4010 	push	{r4, lr}
    ab60:	e3a01001 	mov	r1, #1, 0
    ab64:	ebffffe2 	bl	aaf4 <gpio_set_function>
    ab68:	e8bd8010 	pop	{r4, pc}

0000ab6c <gpio_set_on>:
    ab6c:	e92d4010 	push	{r4, lr}
    ab70:	e350002f 	cmp	r0, #47, 0	; 0x2f
    ab74:	0a000006 	beq	ab94 <gpio_set_on+0x28>
    ab78:	e350001f 	cmp	r0, #31, 0
    ab7c:	88bd8010 	pophi	{r4, pc}
    ab80:	e3a01001 	mov	r1, #1, 0
    ab84:	e1a01011 	lsl	r1, r1, r0
    ab88:	e59f001c 	ldr	r0, [pc, #28]	; abac <gpio_set_on+0x40>
    ab8c:	ebfff524 	bl	8024 <PUT32>
    ab90:	e8bd8010 	pop	{r4, pc}
    ab94:	e200001f 	and	r0, r0, #31, 0
    ab98:	e3a01001 	mov	r1, #1, 0
    ab9c:	e1a01011 	lsl	r1, r1, r0
    aba0:	e59f0008 	ldr	r0, [pc, #8]	; abb0 <gpio_set_on+0x44>
    aba4:	ebfff51e 	bl	8024 <PUT32>
    aba8:	e8bd8010 	pop	{r4, pc}
    abac:	2020001c 	.word	0x2020001c
    abb0:	20200020 	.word	0x20200020

0000abb4 <gpio_set_off>:
    abb4:	e92d4010 	push	{r4, lr}
    abb8:	e350002f 	cmp	r0, #47, 0	; 0x2f
    abbc:	0a000006 	beq	abdc <gpio_set_off+0x28>
    abc0:	e350001f 	cmp	r0, #31, 0
    abc4:	88bd8010 	pophi	{r4, pc}
    abc8:	e3a01001 	mov	r1, #1, 0
    abcc:	e1a01011 	lsl	r1, r1, r0
    abd0:	e59f001c 	ldr	r0, [pc, #28]	; abf4 <gpio_set_off+0x40>
    abd4:	ebfff512 	bl	8024 <PUT32>
    abd8:	e8bd8010 	pop	{r4, pc}
    abdc:	e200001f 	and	r0, r0, #31, 0
    abe0:	e3a01001 	mov	r1, #1, 0
    abe4:	e1a01011 	lsl	r1, r1, r0
    abe8:	e59f0008 	ldr	r0, [pc, #8]	; abf8 <gpio_set_off+0x44>
    abec:	ebfff50c 	bl	8024 <PUT32>
    abf0:	e8bd8010 	pop	{r4, pc}
    abf4:	20200028 	.word	0x20200028
    abf8:	2020002c 	.word	0x2020002c

0000abfc <gpio_set_input>:
    abfc:	e92d4010 	push	{r4, lr}
    ac00:	e3a01000 	mov	r1, #0, 0
    ac04:	ebffffba 	bl	aaf4 <gpio_set_function>
    ac08:	e8bd8010 	pop	{r4, pc}

0000ac0c <gpio_write>:
    ac0c:	e92d4010 	push	{r4, lr}
    ac10:	e3510000 	cmp	r1, #0, 0
    ac14:	0a000001 	beq	ac20 <gpio_write+0x14>
    ac18:	ebffffd3 	bl	ab6c <gpio_set_on>
    ac1c:	e8bd8010 	pop	{r4, pc}
    ac20:	ebffffe3 	bl	abb4 <gpio_set_off>
    ac24:	e8bd8010 	pop	{r4, pc}

0000ac28 <gpio_read>:
    ac28:	e350001f 	cmp	r0, #31, 0
    ac2c:	8a000006 	bhi	ac4c <gpio_read+0x24>
    ac30:	e92d4010 	push	{r4, lr}
    ac34:	e1a04000 	mov	r4, r0
    ac38:	e59f0014 	ldr	r0, [pc, #20]	; ac54 <gpio_read+0x2c>
    ac3c:	ebfff4fa 	bl	802c <GET32>
    ac40:	e1a00430 	lsr	r0, r0, r4
    ac44:	e2000001 	and	r0, r0, #1, 0
    ac48:	e8bd8010 	pop	{r4, pc}
    ac4c:	e3e00000 	mvn	r0, #0, 0
    ac50:	e12fff1e 	bx	lr
    ac54:	20200034 	.word	0x20200034

0000ac58 <using_staff_gpio>:
    ac58:	e12fff1e 	bx	lr

0000ac5c <kmalloc_heap_end>:
    ac5c:	e59f3004 	ldr	r3, [pc, #4]	; ac68 <kmalloc_heap_end+0xc>
    ac60:	e5930000 	ldr	r0, [r3]
    ac64:	e12fff1e 	bx	lr
    ac68:	0000c0cc 	.word	0x0000c0cc

0000ac6c <kmalloc_heap_start>:
    ac6c:	e59f3004 	ldr	r3, [pc, #4]	; ac78 <kmalloc_heap_start+0xc>
    ac70:	e5930004 	ldr	r0, [r3, #4]
    ac74:	e12fff1e 	bx	lr
    ac78:	0000c0cc 	.word	0x0000c0cc

0000ac7c <kmalloc_heap_ptr>:
    ac7c:	e59f3004 	ldr	r3, [pc, #4]	; ac88 <kmalloc_heap_ptr+0xc>
    ac80:	e5930008 	ldr	r0, [r3, #8]
    ac84:	e12fff1e 	bx	lr
    ac88:	0000c0cc 	.word	0x0000c0cc

0000ac8c <kmalloc_init_set_start>:
    ac8c:	e52de004 	push	{lr}		; (str lr, [sp, #-4]!)
    ac90:	e24dd00c 	sub	sp, sp, #12, 0
    ac94:	e59f30a8 	ldr	r3, [pc, #168]	; ad44 <kmalloc_init_set_start+0xb8>
    ac98:	e5933000 	ldr	r3, [r3]
    ac9c:	e3530000 	cmp	r3, #0, 0
    aca0:	1a00000f 	bne	ace4 <kmalloc_init_set_start+0x58>
    aca4:	e59f3098 	ldr	r3, [pc, #152]	; ad44 <kmalloc_init_set_start+0xb8>
    aca8:	e3a02001 	mov	r2, #1, 0
    acac:	e5832000 	str	r2, [r3]
    acb0:	e3510000 	cmp	r1, #0, 0
    acb4:	0a000010 	beq	acfc <kmalloc_init_set_start+0x70>
    acb8:	e59f3088 	ldr	r3, [pc, #136]	; ad48 <kmalloc_init_set_start+0xbc>
    acbc:	e5933008 	ldr	r3, [r3, #8]
    acc0:	e1530000 	cmp	r3, r0
    acc4:	8a000014 	bhi	ad1c <kmalloc_init_set_start+0x90>
    acc8:	e59f3078 	ldr	r3, [pc, #120]	; ad48 <kmalloc_init_set_start+0xbc>
    accc:	e5830008 	str	r0, [r3, #8]
    acd0:	e5830004 	str	r0, [r3, #4]
    acd4:	e0800001 	add	r0, r0, r1
    acd8:	e5830000 	str	r0, [r3]
    acdc:	e28dd00c 	add	sp, sp, #12, 0
    ace0:	e49df004 	pop	{pc}		; (ldr pc, [sp], #4)
    ace4:	e3a03031 	mov	r3, #49, 0	; 0x31
    ace8:	e59f205c 	ldr	r2, [pc, #92]	; ad4c <kmalloc_init_set_start+0xc0>
    acec:	e59f105c 	ldr	r1, [pc, #92]	; ad50 <kmalloc_init_set_start+0xc4>
    acf0:	e59f005c 	ldr	r0, [pc, #92]	; ad54 <kmalloc_init_set_start+0xc8>
    acf4:	ebfffd97 	bl	a358 <printk>
    acf8:	ebfffec6 	bl	a818 <clean_reboot>
    acfc:	e59f3054 	ldr	r3, [pc, #84]	; ad58 <kmalloc_init_set_start+0xcc>
    ad00:	e58d3000 	str	r3, [sp]
    ad04:	e3a03036 	mov	r3, #54, 0	; 0x36
    ad08:	e59f203c 	ldr	r2, [pc, #60]	; ad4c <kmalloc_init_set_start+0xc0>
    ad0c:	e59f103c 	ldr	r1, [pc, #60]	; ad50 <kmalloc_init_set_start+0xc4>
    ad10:	e59f0044 	ldr	r0, [pc, #68]	; ad5c <kmalloc_init_set_start+0xd0>
    ad14:	ebfffd8f 	bl	a358 <printk>
    ad18:	ebfffebe 	bl	a818 <clean_reboot>
    ad1c:	e59f3024 	ldr	r3, [pc, #36]	; ad48 <kmalloc_init_set_start+0xbc>
    ad20:	e5933000 	ldr	r3, [r3]
    ad24:	e58d3004 	str	r3, [sp, #4]
    ad28:	e58d0000 	str	r0, [sp]
    ad2c:	e3a0303a 	mov	r3, #58, 0	; 0x3a
    ad30:	e59f2014 	ldr	r2, [pc, #20]	; ad4c <kmalloc_init_set_start+0xc0>
    ad34:	e59f1014 	ldr	r1, [pc, #20]	; ad50 <kmalloc_init_set_start+0xc4>
    ad38:	e59f0020 	ldr	r0, [pc, #32]	; ad60 <kmalloc_init_set_start+0xd4>
    ad3c:	ebfffd85 	bl	a358 <printk>
    ad40:	ebfffeb4 	bl	a818 <clean_reboot>
    ad44:	0000c194 	.word	0x0000c194
    ad48:	0000c0cc 	.word	0x0000c0cc
    ad4c:	0000c06c 	.word	0x0000c06c
    ad50:	0000be98 	.word	0x0000be98
    ad54:	0000bea4 	.word	0x0000bea4
    ad58:	0000bed8 	.word	0x0000bed8
    ad5c:	0000b20c 	.word	0x0000b20c
    ad60:	0000bee4 	.word	0x0000bee4

0000ad64 <kmalloc_notzero>:
    ad64:	e52de004 	push	{lr}		; (str lr, [sp, #-4]!)
    ad68:	e24dd00c 	sub	sp, sp, #12, 0
    ad6c:	e3500000 	cmp	r0, #0, 0
    ad70:	0a00000d 	beq	adac <kmalloc_notzero+0x48>
    ad74:	e2800007 	add	r0, r0, #7, 0
    ad78:	e3c03007 	bic	r3, r0, #7, 0
    ad7c:	e59f208c 	ldr	r2, [pc, #140]	; ae10 <kmalloc_notzero+0xac>
    ad80:	e5920008 	ldr	r0, [r2, #8]
    ad84:	e3100007 	tst	r0, #7, 0
    ad88:	1a00000f 	bne	adcc <kmalloc_notzero+0x68>
    ad8c:	e0802003 	add	r2, r0, r3
    ad90:	e59f1078 	ldr	r1, [pc, #120]	; ae10 <kmalloc_notzero+0xac>
    ad94:	e5812008 	str	r2, [r1, #8]
    ad98:	e5911000 	ldr	r1, [r1]
    ad9c:	e1520001 	cmp	r2, r1
    ada0:	8a000011 	bhi	adec <kmalloc_notzero+0x88>
    ada4:	e28dd00c 	add	sp, sp, #12, 0
    ada8:	e49df004 	pop	{pc}		; (ldr pc, [sp], #4)
    adac:	e59f3060 	ldr	r3, [pc, #96]	; ae14 <kmalloc_notzero+0xb0>
    adb0:	e58d3000 	str	r3, [sp]
    adb4:	e3a03053 	mov	r3, #83, 0	; 0x53
    adb8:	e59f2058 	ldr	r2, [pc, #88]	; ae18 <kmalloc_notzero+0xb4>
    adbc:	e59f1058 	ldr	r1, [pc, #88]	; ae1c <kmalloc_notzero+0xb8>
    adc0:	e59f0058 	ldr	r0, [pc, #88]	; ae20 <kmalloc_notzero+0xbc>
    adc4:	ebfffd63 	bl	a358 <printk>
    adc8:	ebfffe92 	bl	a818 <clean_reboot>
    adcc:	e59f3050 	ldr	r3, [pc, #80]	; ae24 <kmalloc_notzero+0xc0>
    add0:	e58d3000 	str	r3, [sp]
    add4:	e3a03056 	mov	r3, #86, 0	; 0x56
    add8:	e59f2038 	ldr	r2, [pc, #56]	; ae18 <kmalloc_notzero+0xb4>
    addc:	e59f1038 	ldr	r1, [pc, #56]	; ae1c <kmalloc_notzero+0xb8>
    ade0:	e59f0038 	ldr	r0, [pc, #56]	; ae20 <kmalloc_notzero+0xbc>
    ade4:	ebfffd5b 	bl	a358 <printk>
    ade8:	ebfffe8a 	bl	a818 <clean_reboot>
    adec:	e0422001 	sub	r2, r2, r1
    adf0:	e58d2004 	str	r2, [sp, #4]
    adf4:	e58d3000 	str	r3, [sp]
    adf8:	e3a0305b 	mov	r3, #91, 0	; 0x5b
    adfc:	e59f2014 	ldr	r2, [pc, #20]	; ae18 <kmalloc_notzero+0xb4>
    ae00:	e59f1014 	ldr	r1, [pc, #20]	; ae1c <kmalloc_notzero+0xb8>
    ae04:	e59f001c 	ldr	r0, [pc, #28]	; ae28 <kmalloc_notzero+0xc4>
    ae08:	ebfffd52 	bl	a358 <printk>
    ae0c:	ebfffe81 	bl	a818 <clean_reboot>
    ae10:	0000c0cc 	.word	0x0000c0cc
    ae14:	0000bedc 	.word	0x0000bedc
    ae18:	0000c084 	.word	0x0000c084
    ae1c:	0000be98 	.word	0x0000be98
    ae20:	0000b20c 	.word	0x0000b20c
    ae24:	0000bf28 	.word	0x0000bf28
    ae28:	0000bf40 	.word	0x0000bf40

0000ae2c <kmalloc>:
    ae2c:	e92d4030 	push	{r4, r5, lr}
    ae30:	e24dd00c 	sub	sp, sp, #12, 0
    ae34:	e2504000 	subs	r4, r0, #0, 0
    ae38:	0a000008 	beq	ae60 <kmalloc+0x34>
    ae3c:	e1a00004 	mov	r0, r4
    ae40:	ebffffc7 	bl	ad64 <kmalloc_notzero>
    ae44:	e1a05000 	mov	r5, r0
    ae48:	e1a02004 	mov	r2, r4
    ae4c:	e3a01000 	mov	r1, #0, 0
    ae50:	ebfffd18 	bl	a2b8 <memset>
    ae54:	e1a00005 	mov	r0, r5
    ae58:	e28dd00c 	add	sp, sp, #12, 0
    ae5c:	e8bd8030 	pop	{r4, r5, pc}
    ae60:	e59f3018 	ldr	r3, [pc, #24]	; ae80 <kmalloc+0x54>
    ae64:	e58d3000 	str	r3, [sp]
    ae68:	e3a03062 	mov	r3, #98, 0	; 0x62
    ae6c:	e59f2010 	ldr	r2, [pc, #16]	; ae84 <kmalloc+0x58>
    ae70:	e59f1010 	ldr	r1, [pc, #16]	; ae88 <kmalloc+0x5c>
    ae74:	e59f0010 	ldr	r0, [pc, #16]	; ae8c <kmalloc+0x60>
    ae78:	ebfffd36 	bl	a358 <printk>
    ae7c:	ebfffe65 	bl	a818 <clean_reboot>
    ae80:	0000bedc 	.word	0x0000bedc
    ae84:	0000c094 	.word	0x0000c094
    ae88:	0000be98 	.word	0x0000be98
    ae8c:	0000b20c 	.word	0x0000b20c

0000ae90 <kmalloc_aligned>:
    ae90:	e52de004 	push	{lr}		; (str lr, [sp, #-4]!)
    ae94:	e24dd00c 	sub	sp, sp, #12, 0
    ae98:	e3500000 	cmp	r0, #0, 0
    ae9c:	0a000014 	beq	aef4 <kmalloc_aligned+0x64>
    aea0:	e2613000 	rsb	r3, r1, #0, 0
    aea4:	e1d13003 	bics	r3, r1, r3
    aea8:	1a000019 	bne	af14 <kmalloc_aligned+0x84>
    aeac:	e3510008 	cmp	r1, #8, 0
    aeb0:	33a01008 	movcc	r1, #8, 0
    aeb4:	e59f30b8 	ldr	r3, [pc, #184]	; af74 <kmalloc_aligned+0xe4>
    aeb8:	e5932008 	ldr	r2, [r3, #8]
    aebc:	e2613000 	rsb	r3, r1, #0, 0
    aec0:	e1d1c003 	bics	ip, r1, r3
    aec4:	1a00001a 	bne	af34 <kmalloc_aligned+0xa4>
    aec8:	e0822001 	add	r2, r2, r1
    aecc:	e2422001 	sub	r2, r2, #1, 0
    aed0:	e0033002 	and	r3, r3, r2
    aed4:	e2411001 	sub	r1, r1, #1, 0
    aed8:	e1110003 	tst	r1, r3
    aedc:	1a00001c 	bne	af54 <kmalloc_aligned+0xc4>
    aee0:	e59f208c 	ldr	r2, [pc, #140]	; af74 <kmalloc_aligned+0xe4>
    aee4:	e5823008 	str	r3, [r2, #8]
    aee8:	ebffffcf 	bl	ae2c <kmalloc>
    aeec:	e28dd00c 	add	sp, sp, #12, 0
    aef0:	e49df004 	pop	{pc}		; (ldr pc, [sp], #4)
    aef4:	e59f307c 	ldr	r3, [pc, #124]	; af78 <kmalloc_aligned+0xe8>
    aef8:	e58d3000 	str	r3, [sp]
    aefc:	e3a0306d 	mov	r3, #109, 0	; 0x6d
    af00:	e59f2074 	ldr	r2, [pc, #116]	; af7c <kmalloc_aligned+0xec>
    af04:	e59f1074 	ldr	r1, [pc, #116]	; af80 <kmalloc_aligned+0xf0>
    af08:	e59f0074 	ldr	r0, [pc, #116]	; af84 <kmalloc_aligned+0xf4>
    af0c:	ebfffd11 	bl	a358 <printk>
    af10:	ebfffe40 	bl	a818 <clean_reboot>
    af14:	e59f306c 	ldr	r3, [pc, #108]	; af88 <kmalloc_aligned+0xf8>
    af18:	e58d3000 	str	r3, [sp]
    af1c:	e3a0306e 	mov	r3, #110, 0	; 0x6e
    af20:	e59f2054 	ldr	r2, [pc, #84]	; af7c <kmalloc_aligned+0xec>
    af24:	e59f1054 	ldr	r1, [pc, #84]	; af80 <kmalloc_aligned+0xf0>
    af28:	e59f005c 	ldr	r0, [pc, #92]	; af8c <kmalloc_aligned+0xfc>
    af2c:	ebfffd09 	bl	a358 <printk>
    af30:	ebfffe38 	bl	a818 <clean_reboot>
    af34:	e59f3054 	ldr	r3, [pc, #84]	; af90 <kmalloc_aligned+0x100>
    af38:	e58d3000 	str	r3, [sp]
    af3c:	e3a03011 	mov	r3, #17, 0
    af40:	e59f204c 	ldr	r2, [pc, #76]	; af94 <kmalloc_aligned+0x104>
    af44:	e59f1034 	ldr	r1, [pc, #52]	; af80 <kmalloc_aligned+0xf0>
    af48:	e59f0034 	ldr	r0, [pc, #52]	; af84 <kmalloc_aligned+0xf4>
    af4c:	ebfffd01 	bl	a358 <printk>
    af50:	ebfffe30 	bl	a818 <clean_reboot>
    af54:	e59f303c 	ldr	r3, [pc, #60]	; af98 <kmalloc_aligned+0x108>
    af58:	e58d3000 	str	r3, [sp]
    af5c:	e3a03076 	mov	r3, #118, 0	; 0x76
    af60:	e59f2014 	ldr	r2, [pc, #20]	; af7c <kmalloc_aligned+0xec>
    af64:	e59f1014 	ldr	r1, [pc, #20]	; af80 <kmalloc_aligned+0xf0>
    af68:	e59f002c 	ldr	r0, [pc, #44]	; af9c <kmalloc_aligned+0x10c>
    af6c:	ebfffcf9 	bl	a358 <printk>
    af70:	ebfffe28 	bl	a818 <clean_reboot>
    af74:	0000c0cc 	.word	0x0000c0cc
    af78:	0000bedc 	.word	0x0000bedc
    af7c:	0000c09c 	.word	0x0000c09c
    af80:	0000be98 	.word	0x0000be98
    af84:	0000b20c 	.word	0x0000b20c
    af88:	0000bfc8 	.word	0x0000bfc8
    af8c:	0000bf88 	.word	0x0000bf88
    af90:	0000bfdc 	.word	0x0000bfdc
    af94:	0000c0ac 	.word	0x0000c0ac
    af98:	0000c020 	.word	0x0000c020
    af9c:	0000bfe8 	.word	0x0000bfe8

0000afa0 <kfree_all>:
    afa0:	e59f3008 	ldr	r3, [pc, #8]	; afb0 <kfree_all+0x10>
    afa4:	e5932004 	ldr	r2, [r3, #4]
    afa8:	e5832008 	str	r2, [r3, #8]
    afac:	e12fff1e 	bx	lr
    afb0:	0000c0cc 	.word	0x0000c0cc

0000afb4 <kfree_pop>:
    afb4:	e59f3048 	ldr	r3, [pc, #72]	; b004 <kfree_pop+0x50>
    afb8:	e5933004 	ldr	r3, [r3, #4]
    afbc:	e1530000 	cmp	r3, r0
    afc0:	8a000006 	bhi	afe0 <kfree_pop+0x2c>
    afc4:	e59f3038 	ldr	r3, [pc, #56]	; b004 <kfree_pop+0x50>
    afc8:	e5933000 	ldr	r3, [r3]
    afcc:	e1530000 	cmp	r3, r0
    afd0:	3a000002 	bcc	afe0 <kfree_pop+0x2c>
    afd4:	e59f3028 	ldr	r3, [pc, #40]	; b004 <kfree_pop+0x50>
    afd8:	e5830008 	str	r0, [r3, #8]
    afdc:	e12fff1e 	bx	lr
    afe0:	e52de004 	push	{lr}		; (str lr, [sp, #-4]!)
    afe4:	e24dd00c 	sub	sp, sp, #12, 0
    afe8:	e58d0000 	str	r0, [sp]
    afec:	e3a03085 	mov	r3, #133, 0	; 0x85
    aff0:	e59f2010 	ldr	r2, [pc, #16]	; b008 <kfree_pop+0x54>
    aff4:	e59f1010 	ldr	r1, [pc, #16]	; b00c <kfree_pop+0x58>
    aff8:	e59f0010 	ldr	r0, [pc, #16]	; b010 <kfree_pop+0x5c>
    affc:	ebfffcd5 	bl	a358 <printk>
    b000:	ebfffe04 	bl	a818 <clean_reboot>
    b004:	0000c0cc 	.word	0x0000c0cc
    b008:	0000c0b4 	.word	0x0000c0b4
    b00c:	0000be98 	.word	0x0000be98
    b010:	0000c03c 	.word	0x0000c03c

0000b014 <putk>:
    b014:	e92d4010 	push	{r4, lr}
    b018:	e1a04000 	mov	r4, r0
    b01c:	e5d40000 	ldrb	r0, [r4]
    b020:	e3500000 	cmp	r0, #0, 0
    b024:	0a000004 	beq	b03c <putk+0x28>
    b028:	e59f3014 	ldr	r3, [pc, #20]	; b044 <putk+0x30>
    b02c:	e5933000 	ldr	r3, [r3]
    b030:	e12fff33 	blx	r3
    b034:	e2844001 	add	r4, r4, #1, 0
    b038:	eafffff7 	b	b01c <putk+0x8>
    b03c:	e3a00001 	mov	r0, #1, 0
    b040:	e8bd8010 	pop	{r4, pc}
    b044:	0000c0c8 	.word	0x0000c0c8

0000b048 <reboot_callout>:
    b048:	e12fff1e 	bx	lr

0000b04c <__code_end__>:
    b04c:	00000000 	andeq	r0, r0, r0
